
LT24_swipe.elf:     file format elf32-littlenios2
LT24_swipe.elf
architecture: nios2:r1, flags 0x00000112:
EXEC_P, HAS_SYMS, D_PAGED
start address 0x05040248

Program Header:
    LOAD off    0x00001000 vaddr 0x05040000 paddr 0x05040000 align 2**12
         filesz 0x00000020 memsz 0x00000020 flags r-x
    LOAD off    0x00001020 vaddr 0x05040020 paddr 0x05040020 align 2**12
         filesz 0x000217d0 memsz 0x000217d0 flags r-x
    LOAD off    0x000227f0 vaddr 0x050617f0 paddr 0x050637c0 align 2**12
         filesz 0x00001fd0 memsz 0x00001fd0 flags rw-
    LOAD off    0x00025790 vaddr 0x05065790 paddr 0x05065790 align 2**12
         filesz 0x00000000 memsz 0x000005b8 flags rw-

Sections:
Idx Name          Size      VMA       LMA       File off  Algn
  0 .entry        00000020  05040000  05040000  00001000  2**5
                  CONTENTS, ALLOC, LOAD, READONLY, CODE
  1 .exceptions   00000228  05040020  05040020  00001020  2**2
                  CONTENTS, ALLOC, LOAD, READONLY, CODE
  2 .text         00020ca8  05040248  05040248  00001248  2**2
                  CONTENTS, ALLOC, LOAD, READONLY, CODE
  3 .rodata       00000900  05060ef0  05060ef0  00021ef0  2**2
                  CONTENTS, ALLOC, LOAD, READONLY, DATA
  4 .rwdata       00001fd0  050617f0  050637c0  000227f0  2**2
                  CONTENTS, ALLOC, LOAD, DATA, SMALL_DATA
  5 .bss          000005b8  05065790  05065790  00025790  2**2
                  ALLOC, SMALL_DATA
  6 .new_sdram_controller_0 00000000  00000000  00000000  000247c0  2**0
                  CONTENTS
  7 .onchip_memory2_0 00000000  05065d48  05065d48  000247c0  2**0
                  CONTENTS
  8 .comment      00000023  00000000  00000000  000247c0  2**0
                  CONTENTS, READONLY
  9 .debug_aranges 00001418  00000000  00000000  000247e8  2**3
                  CONTENTS, READONLY, DEBUGGING
 10 .debug_info   00030ce7  00000000  00000000  00025c00  2**0
                  CONTENTS, READONLY, DEBUGGING
 11 .debug_abbrev 0000c77b  00000000  00000000  000568e7  2**0
                  CONTENTS, READONLY, DEBUGGING
 12 .debug_line   00012831  00000000  00000000  00063062  2**0
                  CONTENTS, READONLY, DEBUGGING
 13 .debug_frame  000039dc  00000000  00000000  00075894  2**2
                  CONTENTS, READONLY, DEBUGGING
 14 .debug_str    00005c52  00000000  00000000  00079270  2**0
                  CONTENTS, READONLY, DEBUGGING
 15 .debug_loc    00021c88  00000000  00000000  0007eec2  2**0
                  CONTENTS, READONLY, DEBUGGING
 16 .debug_alt_sim_info 00000060  00000000  00000000  000a0b4c  2**2
                  CONTENTS, READONLY, DEBUGGING
 17 .debug_ranges 000020c0  00000000  00000000  000a0bb0  2**3
                  CONTENTS, READONLY, DEBUGGING
 18 .thread_model 00000003  00000000  00000000  000a7bad  2**0
                  CONTENTS, READONLY
 19 .cpu          0000000c  00000000  00000000  000a7bb0  2**0
                  CONTENTS, READONLY
 20 .qsys         00000001  00000000  00000000  000a7bbc  2**0
                  CONTENTS, READONLY
 21 .simulation_enabled 00000001  00000000  00000000  000a7bbd  2**0
                  CONTENTS, READONLY
 22 .sysid_hash   00000004  00000000  00000000  000a7bbe  2**0
                  CONTENTS, READONLY
 23 .sysid_base   00000004  00000000  00000000  000a7bc2  2**0
                  CONTENTS, READONLY
 24 .sysid_time   00000004  00000000  00000000  000a7bc6  2**0
                  CONTENTS, READONLY
 25 .stderr_dev   0000000b  00000000  00000000  000a7bca  2**0
                  CONTENTS, READONLY
 26 .stdin_dev    0000000b  00000000  00000000  000a7bd5  2**0
                  CONTENTS, READONLY
 27 .stdout_dev   0000000b  00000000  00000000  000a7be0  2**0
                  CONTENTS, READONLY
 28 .sopc_system_name 0000001f  00000000  00000000  000a7beb  2**0
                  CONTENTS, READONLY
 29 .quartus_project_dir 0000005e  00000000  00000000  000a7c0a  2**0
                  CONTENTS, READONLY
 30 .sopcinfo     000bf6e2  00000000  00000000  000a7c68  2**0
                  CONTENTS, READONLY
SYMBOL TABLE:
05040000 l    d  .entry	00000000 .entry
05040020 l    d  .exceptions	00000000 .exceptions
05040248 l    d  .text	00000000 .text
05060ef0 l    d  .rodata	00000000 .rodata
050617f0 l    d  .rwdata	00000000 .rwdata
05065790 l    d  .bss	00000000 .bss
00000000 l    d  .new_sdram_controller_0	00000000 .new_sdram_controller_0
05065d48 l    d  .onchip_memory2_0	00000000 .onchip_memory2_0
00000000 l    d  .comment	00000000 .comment
00000000 l    d  .debug_aranges	00000000 .debug_aranges
00000000 l    d  .debug_info	00000000 .debug_info
00000000 l    d  .debug_abbrev	00000000 .debug_abbrev
00000000 l    d  .debug_line	00000000 .debug_line
00000000 l    d  .debug_frame	00000000 .debug_frame
00000000 l    d  .debug_str	00000000 .debug_str
00000000 l    d  .debug_loc	00000000 .debug_loc
00000000 l    d  .debug_alt_sim_info	00000000 .debug_alt_sim_info
00000000 l    d  .debug_ranges	00000000 .debug_ranges
00000000 l    df *ABS*	00000000 C:/Users/vanno/OneDrive/Documents/GitKraken/3D_Graphic_Engine/test_accelerometro_vga_lt24/software/LT24_swipe_bsp//obj/HAL/src/crt0.o
05040290 l       .text	00000000 alt_after_alt_main
00000000 l    df *ABS*	00000000 alt_irq_handler.c
00000000 l    df *ABS*	00000000 alt_instruction_exception_entry.c
00000000 l    df *ABS*	00000000 ILI9341.c
00000000 l    df *ABS*	00000000 debug.c
00000000 l    df *ABS*	00000000 simple_graphics.c
00000000 l    df *ABS*	00000000 simple_text.c
00000000 l    df *ABS*	00000000 touch_spi.c
00000000 l    df *ABS*	00000000 LT24_interface.cpp
00000000 l    df *ABS*	00000000 accelerometer.cpp
05065798 l     O .bss	00000002 _ZZ24accelerometer_controllervE15slider_data_reg
0506579c l     O .bss	00000004 _ZZ24accelerometer_controllervE5x_acc
050657a0 l     O .bss	00000004 _ZZ24accelerometer_controllervE5y_acc
050657a4 l     O .bss	00000002 _ZZ24accelerometer_controllervE15edge_capture_k1
0506377c l     O .rwdata	00000001 _ZZ24accelerometer_controllervE10command_sw
050657a8 l     O .bss	00000004 _ZZ24accelerometer_controllervE6inc_rx
050657ac l     O .bss	00000004 _ZZ24accelerometer_controllervE6inc_ry
050657b0 l     O .bss	00000004 _ZZ24accelerometer_controllervE6inc_tx
050657b4 l     O .bss	00000004 _ZZ24accelerometer_controllervE6inc_ty
00000000 l    df *ABS*	00000000 functions.cpp
00000000 l    df *ABS*	00000000 graphic_object.cpp
00000000 l    df *ABS*	00000000 test_render.cpp
05048b74 l     F .text	00000054 _Z41__static_initialization_and_destruction_0ii
05048bc8 l     F .text	00000030 _GLOBAL__sub_I_pixel_buf_dma_dev
00000000 l    df *ABS*	00000000 s_cos.c
00000000 l    df *ABS*	00000000 s_sin.c
00000000 l    df *ABS*	00000000 s_tan.c
00000000 l    df *ABS*	00000000 e_rem_pio2.c
05061304 l     O .rodata	00000108 two_over_pi
05061284 l     O .rodata	00000080 npio2_hw
00000000 l    df *ABS*	00000000 k_cos.c
00000000 l    df *ABS*	00000000 k_rem_pio2.c
0506144c l     O .rodata	00000010 init_jk
0506140c l     O .rodata	00000040 PIo2
00000000 l    df *ABS*	00000000 k_sin.c
00000000 l    df *ABS*	00000000 k_tan.c
00000000 l    df *ABS*	00000000 s_fabs.c
00000000 l    df *ABS*	00000000 s_floor.c
00000000 l    df *ABS*	00000000 s_scalbn.c
00000000 l    df *ABS*	00000000 s_copysign.c
00000000 l    df *ABS*	00000000 lib2-divmod.c
00000000 l    df *ABS*	00000000 addsf3.c
00000000 l    df *ABS*	00000000 divsf3.c
00000000 l    df *ABS*	00000000 mulsf3.c
00000000 l    df *ABS*	00000000 subsf3.c
00000000 l    df *ABS*	00000000 fixsfsi.c
00000000 l    df *ABS*	00000000 floatsisf.c
00000000 l    df *ABS*	00000000 floatunsisf.c
00000000 l    df *ABS*	00000000 adddf3.c
00000000 l    df *ABS*	00000000 divdf3.c
00000000 l    df *ABS*	00000000 eqdf2.c
00000000 l    df *ABS*	00000000 gedf2.c
00000000 l    df *ABS*	00000000 muldf3.c
00000000 l    df *ABS*	00000000 subdf3.c
00000000 l    df *ABS*	00000000 fixdfsi.c
00000000 l    df *ABS*	00000000 floatsidf.c
00000000 l    df *ABS*	00000000 extendsfdf2.c
00000000 l    df *ABS*	00000000 truncdfsf2.c
00000000 l    df *ABS*	00000000 libgcc2.c
00000000 l    df *ABS*	00000000 libgcc2.c
00000000 l    df *ABS*	00000000 malloc.c
00000000 l    df *ABS*	00000000 mallocr.c
00000000 l    df *ABS*	00000000 memcpy.c
00000000 l    df *ABS*	00000000 memset.c
00000000 l    df *ABS*	00000000 printf.c
00000000 l    df *ABS*	00000000 puts.c
00000000 l    df *ABS*	00000000 sbrkr.c
00000000 l    df *ABS*	00000000 sprintf.c
00000000 l    df *ABS*	00000000 strcpy.c
00000000 l    df *ABS*	00000000 strlen.c
00000000 l    df *ABS*	00000000 vfprintf.c
050615a2 l     O .rodata	00000010 zeroes.4389
050615b2 l     O .rodata	00000010 blanks.4388
00000000 l    df *ABS*	00000000 vfprintf.c
050615c2 l     O .rodata	00000010 zeroes.4404
05054570 l     F .text	000000bc __sbprintf
050615d2 l     O .rodata	00000010 blanks.4403
00000000 l    df *ABS*	00000000 vsnprintf.c
00000000 l    df *ABS*	00000000 wsetup.c
00000000 l    df *ABS*	00000000 dtoa.c
050548a4 l     F .text	00000200 quorem
00000000 l    df *ABS*	00000000 fflush.c
00000000 l    df *ABS*	00000000 findfp.c
050563d4 l     F .text	00000008 __fp_unlock
050563e8 l     F .text	0000019c __sinit.part.1
05056584 l     F .text	00000008 __fp_lock
00000000 l    df *ABS*	00000000 mallocr.c
00000000 l    df *ABS*	00000000 fvwrite.c
00000000 l    df *ABS*	00000000 fwalk.c
00000000 l    df *ABS*	00000000 impure.c
05062010 l     O .rwdata	00000424 impure_data
00000000 l    df *ABS*	00000000 int_errno.c
00000000 l    df *ABS*	00000000 locale.c
05062454 l     O .rwdata	00000020 lc_ctype_charset
05062434 l     O .rwdata	00000020 lc_message_charset
05062474 l     O .rwdata	00000038 lconv
00000000 l    df *ABS*	00000000 makebuf.c
00000000 l    df *ABS*	00000000 memchr.c
00000000 l    df *ABS*	00000000 memmove.c
00000000 l    df *ABS*	00000000 mprec.c
05061604 l     O .rodata	0000000c p05.2768
00000000 l    df *ABS*	00000000 mallocr.c
00000000 l    df *ABS*	00000000 s_fpclassify.c
00000000 l    df *ABS*	00000000 stdio.c
00000000 l    df *ABS*	00000000 strcmp.c
00000000 l    df *ABS*	00000000 vfprintf.c
05061738 l     O .rodata	00000010 blanks.4332
05061728 l     O .rodata	00000010 zeroes.4333
00000000 l    df *ABS*	00000000 vfprintf.c
0505a2bc l     F .text	000000fc __sprint_r.part.0
05061758 l     O .rodata	00000010 blanks.4348
05061748 l     O .rodata	00000010 zeroes.4349
0505b848 l     F .text	000000bc __sbprintf
00000000 l    df *ABS*	00000000 writer.c
00000000 l    df *ABS*	00000000 closer.c
00000000 l    df *ABS*	00000000 mallocr.c
00000000 l    df *ABS*	00000000 fclose.c
00000000 l    df *ABS*	00000000 fputwc.c
00000000 l    df *ABS*	00000000 fstatr.c
00000000 l    df *ABS*	00000000 isattyr.c
00000000 l    df *ABS*	00000000 lseekr.c
00000000 l    df *ABS*	00000000 readr.c
00000000 l    df *ABS*	00000000 wbuf.c
00000000 l    df *ABS*	00000000 wcrtomb.c
00000000 l    df *ABS*	00000000 wctomb_r.c
00000000 l    df *ABS*	00000000 libgcc2.c
00000000 l    df *ABS*	00000000 libgcc2.c
00000000 l    df *ABS*	00000000 ledf2.c
00000000 l    df *ABS*	00000000 floatunsidf.c
00000000 l    df *ABS*	00000000 alt_alarm_start.c
00000000 l    df *ABS*	00000000 alt_close.c
0505cfb0 l     F .text	0000003c alt_get_errno
00000000 l    df *ABS*	00000000 alt_dev.c
0505d0bc l     F .text	0000002c alt_dev_null_write
00000000 l    df *ABS*	00000000 alt_errno.c
00000000 l    df *ABS*	00000000 alt_fstat.c
0505d0e8 l     F .text	0000003c alt_get_errno
00000000 l    df *ABS*	00000000 alt_irq_register.c
00000000 l    df *ABS*	00000000 alt_irq_vars.c
00000000 l    df *ABS*	00000000 alt_isatty.c
0505d354 l     F .text	0000003c alt_get_errno
00000000 l    df *ABS*	00000000 alt_load.c
0505d434 l     F .text	00000068 alt_load_section
00000000 l    df *ABS*	00000000 alt_lseek.c
0505d520 l     F .text	0000003c alt_get_errno
00000000 l    df *ABS*	00000000 alt_main.c
00000000 l    df *ABS*	00000000 alt_malloc_lock.c
00000000 l    df *ABS*	00000000 alt_read.c
0505d6f4 l     F .text	0000003c alt_get_errno
00000000 l    df *ABS*	00000000 alt_release_fd.c
00000000 l    df *ABS*	00000000 alt_sbrk.c
050637b4 l     O .rwdata	00000004 heap_end
00000000 l    df *ABS*	00000000 alt_tick.c
00000000 l    df *ABS*	00000000 alt_usleep.c
00000000 l    df *ABS*	00000000 alt_write.c
0505db14 l     F .text	0000003c alt_get_errno
00000000 l    df *ABS*	00000000 alt_sys_init.c
0505dc48 l     F .text	00000034 alt_dev_reg
05062654 l     O .rwdata	00001060 jtag_uart_0
050636b4 l     O .rwdata	0000002c accelerometer_spi
050636e0 l     O .rwdata	00000054 video_pixel_buffer_dma_0
05063734 l     O .rwdata	00000044 video_rgb_resampler_0
00000000 l    df *ABS*	00000000 altera_avalon_jtag_uart_fd.c
00000000 l    df *ABS*	00000000 altera_avalon_jtag_uart_init.c
0505e214 l     F .text	00000210 altera_avalon_jtag_uart_irq
0505e424 l     F .text	000000a0 altera_avalon_jtag_uart_timeout
00000000 l    df *ABS*	00000000 altera_avalon_jtag_uart_ioctl.c
00000000 l    df *ABS*	00000000 altera_avalon_jtag_uart_read.c
00000000 l    df *ABS*	00000000 altera_avalon_jtag_uart_write.c
00000000 l    df *ABS*	00000000 altera_avalon_spi.c
00000000 l    df *ABS*	00000000 altera_avalon_timer_sc.c
0505ec58 l     F .text	0000007c alt_avalon_timer_sc_irq
00000000 l    df *ABS*	00000000 altera_avalon_timer_ts.c
00000000 l    df *ABS*	00000000 altera_avalon_timer_vars.c
00000000 l    df *ABS*	00000000 altera_up_avalon_accelerometer_spi.c
00000000 l    df *ABS*	00000000 altera_up_avalon_video_pixel_buffer_dma.c
00000000 l    df *ABS*	00000000 alt_busy_sleep.c
00000000 l    df *ABS*	00000000 alt_dcache_flush_all.c
00000000 l    df *ABS*	00000000 alt_dev_llist_insert.c
05060264 l     F .text	0000003c alt_get_errno
00000000 l    df *ABS*	00000000 alt_do_ctors.c
00000000 l    df *ABS*	00000000 alt_do_dtors.c
00000000 l    df *ABS*	00000000 alt_find_dev.c
00000000 l    df *ABS*	00000000 alt_icache_flush_all.c
00000000 l    df *ABS*	00000000 alt_io_redirect.c
050604c8 l     F .text	000000c4 alt_open_fd
00000000 l    df *ABS*	00000000 alt_open.c
05060608 l     F .text	0000003c alt_get_errno
05060644 l     F .text	000000c4 alt_file_locked
00000000 l    df *ABS*	00000000 altera_nios2_gen2_irq.c
00000000 l    df *ABS*	00000000 alt_find_file.c
00000000 l    df *ABS*	00000000 alt_get_fd.c
00000000 l    df *ABS*	00000000 alt_icache_flush.c
00000000 l    df *ABS*	00000000 atexit.c
00000000 l    df *ABS*	00000000 exit.c
00000000 l    df *ABS*	00000000 memcmp.c
00000000 l    df *ABS*	00000000 __atexit.c
00000000 l    df *ABS*	00000000 __call_atexit.c
00000000 l    df *ABS*	00000000 alt_exit.c
05046db8 g     F .text	00000634 _ZN7Cube_3D22vector_matrix_multiplyEv
050657f8 g     O .bss	00000004 alt_instruction_exception_handler
05041aec g     F .text	0000007c vid_draw_horiz_line
05058548 g     F .text	00000074 _mprec_log10
05058634 g     F .text	0000008c __any_on
0505bde4 g     F .text	00000054 _isatty_r
05061610 g     O .rodata	00000028 __mprec_tinytens
05040420 g     F .text	0000007c LCD_DrawPoint
0505d630 g     F .text	0000007c alt_main
0505005c g     F .text	00000090 strcpy
0505fae4 g     F .text	0000024c alt_up_pixel_buffer_dma_draw_vline
0504fe70 g     F .text	000000c0 _puts_r
05065c48 g     O .bss	00000100 alt_irq
0504b204 g     F .text	00000014 fabs
0505be38 g     F .text	00000060 _lseek_r
05041c54 g     F .text	0000006c vid_color_convert16_24
050637c0 g       *ABS*	00000000 __flash_rwdata_start
0504dd70 g     F .text	00000088 .hidden __eqdf2
050444f8 g     F .text	00000168 touch_enable_penirq
05065d48 g       *ABS*	00000000 __alt_heap_start
05040b0c g     F .text	0000013c LCD_Pattern_Horizon
0504fe34 g     F .text	0000003c printf
0505c050 g     F .text	0000009c _wcrtomb_r
05058d70 g     F .text	0000005c __sseek
05056724 g     F .text	00000010 __sinit
0505bef8 g     F .text	00000140 __swbuf_r
050571ec g     F .text	0000007c _setlocale_r
0505658c g     F .text	00000068 __sfmoreglue
0505d6d0 g     F .text	00000024 __malloc_unlock
05041728 g     F .text	00000158 vid_draw_box
0504bc38 g     F .text	00000440 .hidden __divsf3
050435e0 g     F .text	00000264 vid_print_string_alpha
050657f4 g     O .bss	00000004 altera_avalon_timer_ts_freq
05057568 g     F .text	0000015c memmove
0505670c g     F .text	00000018 _cleanup
050576c4 g     F .text	000000a8 _Balloc
050617f0 g     O .rwdata	00000415 cour10_font_array
0504c958 g     F .text	00000070 .hidden __fixsfsi
0505f24c g     F .text	00000194 alt_up_pixel_buffer_dma_draw
0504ddf8 g     F .text	000000dc .hidden __gtdf2
05041504 g     F .text	0000011c vid_move_block
0506085c g     F .text	00000024 altera_nios2_gen2_irq_init
05043f44 g     F .text	000000e8 vid_string_pixel_length_alpha
0505f210 g     F .text	0000003c alt_up_pixel_buffer_dma_open_dev
05040000 g     F .entry	0000001c __reset
050465d8 g     F .text	000002b8 _ZN7Cube_3D24update_rotation_relativeEfi
0505efac g     F .text	000000cc alt_up_accelerometer_spi_read_x_axis
05040020 g       *ABS*	00000000 __flash_exceptions_start
0504039c g     F .text	00000084 LCD_Clear
0505bd88 g     F .text	0000005c _fstat_r
050657c8 g     O .bss	00000004 errno
0504b218 g     F .text	000001ec floor
05058cec g     F .text	00000008 __seofread
05059080 g     F .text	0000123c ___svfiprintf_internal_r
050657e0 g     O .bss	00000004 alt_argv
0506b778 g       *ABS*	00000000 _gp
0505dae4 g     F .text	00000030 usleep
0504c474 g     F .text	000004e4 .hidden __subsf3
0505f3e0 g     F .text	0000005c alt_up_pixel_buffer_dma_change_back_buffer_address
05046088 g     F .text	000000f0 _ZN7Cube_3D27update_translation_relativeEfi
05043844 g     F .text	00000148 seperate_color_channels
050624d4 g     O .rwdata	00000180 alt_fd_list
05048f2c g     F .text	0000076c __ieee754_rem_pio2
05060404 g     F .text	00000090 alt_find_dev
0504fb94 g     F .text	00000148 memcpy
050450c0 g     F .text	00000360 _Z24accelerometer_controllerv
050563dc g     F .text	0000000c _cleanup_r
0504ef68 g     F .text	000000dc .hidden __floatsidf
0504247c g     F .text	0000073c vid_round_corner_points
05044190 g     F .text	0000006c Touch_UnInit
0506058c g     F .text	0000007c alt_io_redirect
0505cce8 g     F .text	000000f4 .hidden __ltdf2
05060ef0 g       *ABS*	00000000 __DTOR_END__
0504ff30 g     F .text	00000014 puts
05060abc g     F .text	0000009c alt_exception_cause_generated_bad_addr
05040ee4 g     F .text	00000064 vid_clean_screen
05058c24 g     F .text	00000074 __fpclassifyd
050584a4 g     F .text	000000a4 __ratio
0505b82c g     F .text	0000001c __vfiprintf_internal
0505f49c g     F .text	00000034 alt_up_pixel_buffer_dma_check_swap_buffers_status
05041058 g     F .text	0000014c vid_scroll_string_init
0505e61c g     F .text	0000021c altera_avalon_jtag_uart_read
0504f360 g     F .text	00000014 malloc
0504fe04 g     F .text	00000030 _printf_r
0504402c g     F .text	00000164 Touch_Init
05040000 g       *ABS*	00000000 __alt_mem_onchip_memory2_0
0504b6b4 g     F .text	00000064 .hidden __udivsi3
0505d390 g     F .text	000000a4 isatty
05061660 g     O .rodata	000000c8 __mprec_tens
0505f8d4 g     F .text	00000210 alt_up_pixel_buffer_dma_draw_hline
05057268 g     F .text	0000000c __locale_charset
05049698 g     F .text	000004a4 __kernel_cos
0505471c g     F .text	00000034 vsnprintf
05060a2c g     F .text	00000090 alt_icache_flush
050657c4 g     O .bss	00000004 __malloc_top_pad
050473ec g     F .text	00000fa4 _ZN7Cube_3D22Matrix4x4MultiplyBy4x4EPfS0_S0_
05063790 g     O .rwdata	00000004 __mb_cur_max
05057298 g     F .text	0000000c _localeconv_r
05057ad0 g     F .text	0000003c __i2b
05056ba8 g     F .text	000004bc __sfvwrite_r
05046530 g     F .text	000000a8 _ZN7Cube_3D15update_rotationEfi
0504ff44 g     F .text	00000054 _sbrk_r
0505fdf8 g     F .text	00000084 helper_plot_pixel
05044484 g     F .text	00000034 touch_empty_fifo
0505be98 g     F .text	00000060 _read_r
050637a8 g     O .rwdata	00000004 alt_max_fd
0505ba7c g     F .text	000000f0 _fclose_r
050563a4 g     F .text	00000030 fflush
050657c0 g     O .bss	00000004 __malloc_max_sbrked_mem
0505d1d4 g     F .text	00000180 alt_irq_register
0504a8cc g     F .text	000002cc __kernel_sin
0504f044 g     F .text	00000110 .hidden __extendsfdf2
0504cbdc g     F .text	000008ac .hidden __adddf3
0505824c g     F .text	0000010c __b2d
0505f4d0 g     F .text	00000128 alt_up_pixel_buffer_dma_clear_screen
0505c7b0 g     F .text	00000538 .hidden __umoddi3
0505d55c g     F .text	000000d4 lseek
05063788 g     O .rwdata	00000004 _global_impure_ptr
05041f78 g     F .text	00000148 vid_draw_circle
050586c0 g     F .text	00000564 _realloc_r
05065d48 g       *ABS*	00000000 __bss_end
0505f5f8 g     F .text	000002dc alt_up_pixel_buffer_dma_draw_box
0505d9dc g     F .text	00000108 alt_tick
0505c238 g     F .text	00000578 .hidden __udivdi3
0505bce4 g     F .text	00000024 _fputwc_r
050469b0 g     F .text	000000f0 _ZN7Cube_3D23update_scaling_relativeEfi
05061638 g     O .rodata	00000028 __mprec_bigtens
050578b4 g     F .text	00000104 __s2b
05041d04 g     F .text	00000274 vid_draw_sloped_line
0505cddc g     F .text	000000a8 .hidden __floatunsidf
05057f8c g     F .text	00000060 __mcmp
05056744 g     F .text	00000018 __fp_lock_all
050420c0 g     F .text	000003bc vid_draw_round_corner_box
0505d940 g     F .text	0000009c alt_alarm_stop
05044b2c g     F .text	000001b0 evaluate_swipe
05046890 g     F .text	00000078 _ZN7Cube_3D14update_scalingEfff
050657d8 g     O .bss	00000004 alt_irq_active
05040c48 g     F .text	000000e4 LCD_Pattern_Vertical
050400fc g     F .exceptions	000000d8 alt_irq_handler
050624ac g     O .rwdata	00000028 alt_dev_null
05049b3c g     F .text	00000d90 __kernel_rem_pio2
0506021c g     F .text	00000048 alt_dcache_flush_all
050579b8 g     F .text	00000068 __hi0bits
0505fd30 g     F .text	000000c8 alt_up_pixel_buffer_dma_draw_rectangle
050449d8 g     F .text	00000078 touch_alarm_callback
0504eee8 g     F .text	00000080 .hidden __fixdfsi
050444b8 g     F .text	00000040 touch_is_pen_pressed
050637c0 g       *ABS*	00000000 __ram_rwdata_end
0504300c g     F .text	000003b4 vid_draw_triangle
05065810 g     O .bss	00000410 Cube
050637a0 g     O .rwdata	00000008 alt_dev_list
0505db50 g     F .text	000000f8 write
0505ee40 g     F .text	00000020 alt_timestamp_freq
0505fe7c g     F .text	00000248 alt_up_pixel_buffer_dma_draw_line
050434ac g     F .text	00000134 CropImage16
050617f0 g       *ABS*	00000000 __ram_rodata_end
0505d124 g     F .text	000000b0 fstat
0505cce8 g     F .text	000000f4 .hidden __ledf2
050411a4 g     F .text	00000360 vid_scroll_string
05040d60 g     F .text	0000006c myprintf
05044694 g     F .text	00000344 touch_get_xy
05057d04 g     F .text	00000140 __pow5mult
0505a3d0 g     F .text	0000145c ___vfiprintf_internal_r
050657d4 g     O .bss	00000004 __nlocale_changed
0504b718 g     F .text	00000058 .hidden __umodsi3
050443bc g     F .text	000000c8 touch_isr
050433c0 g     F .text	000000ec CopyImage16
05065d48 g       *ABS*	00000000 end
05065794 g     O .bss	00000004 accelerometer_dev
0505e160 g     F .text	000000b4 altera_avalon_jtag_uart_init
050401d4 g     F .exceptions	00000074 alt_instruction_exception_entry
05041880 g     F .text	000000f0 vid_print_char
05060eec g       *ABS*	00000000 __CTOR_LIST__
05067100 g       *ABS*	00000000 __alt_stack_pointer
0505ecd4 g     F .text	00000074 alt_avalon_timer_sc_init
0504f2fc g     F .text	00000064 .hidden __clzsi2
050483f0 g     F .text	00000108 _Z11display_fpsm
0505e838 g     F .text	00000224 altera_avalon_jtag_uart_write
05048cb0 g     F .text	000000ec cos
05042c0c g     F .text	00000054 min3
05040f48 g     F .text	000000cc vid_draw_line
05056734 g     F .text	00000004 __sfp_lock_acquire
05057484 g     F .text	000000e4 memchr
0505235c g     F .text	000021f8 ___vfprintf_internal_r
0504ff98 g     F .text	00000058 _sprintf_r
05056898 g     F .text	00000310 _free_r
05057274 g     F .text	00000010 __locale_mb_cur_max
050402e4 g     F .text	000000b8 LCD_SetCursor
05046908 g     F .text	000000a8 _ZN7Cube_3D14update_scalingEfi
05060d38 g     F .text	00000180 __call_exitprocs
0504559c g     F .text	00000084 _Z35helper_plot_pixel_enhanced_clippingjiiiii
050657d0 g     O .bss	00000004 __mlocale_changed
05063780 g     O .rwdata	00000004 __malloc_sbrk_base
05040248 g     F .text	0000004c _start
050657e8 g     O .bss	00000004 _alt_tick_rate
050657b8 g     O .bss	00000004 pixel_buf_dma_dev
05048d9c g     F .text	000000f0 sin
05044660 g     F .text	00000034 touch_clear_input
05057e44 g     F .text	00000148 __lshift
0505ea5c g     F .text	000001fc alt_avalon_spi_command
050657ec g     O .bss	00000004 _alt_nticks
05042cc4 g     F .text	00000104 vid_put_pixel_in_span_map
0505d730 g     F .text	000000fc read
0505dcb4 g     F .text	00000348 alt_sys_init
0505ee9c g     F .text	00000044 alt_up_accelerometer_spi_read_address_register
0504c9c8 g     F .text	00000124 .hidden __floatsisf
05058eb0 g     F .text	000001d0 __ssprint_r
05060c20 g     F .text	00000118 __register_exitproc
05048390 g     F .text	00000060 _Z13display_digith
05057b0c g     F .text	000001f8 __multiply
05041a54 g     F .text	00000098 vid_paint_block
0505e4c4 g     F .text	00000068 altera_avalon_jtag_uart_close
050617f0 g       *ABS*	00000000 __ram_rwdata_start
05060ef0 g       *ABS*	00000000 __ram_rodata_start
05065c20 g     O .bss	00000028 __malloc_current_mallinfo
05058358 g     F .text	0000014c __d2b
05045fe0 g     F .text	000000a8 _ZN7Cube_3D18update_translationEfi
05041bb4 g     F .text	000000a0 vid_color_convert24_16
050459a4 g     F .text	000005c4 _ZN7Cube_3DC1Ev
0505dffc g     F .text	00000060 altera_avalon_jtag_uart_read_fd
05060988 g     F .text	000000a4 alt_get_fd
050600c4 g     F .text	00000158 alt_busy_sleep
0505f078 g     F .text	000000cc alt_up_accelerometer_spi_read_y_axis
0505b964 g     F .text	00000054 _close_r
05043b00 g     F .text	0000025c alpha_blending
05060ba4 g     F .text	0000007c memcmp
0505e0bc g     F .text	00000050 altera_avalon_jtag_uart_close_fd
05065d48 g       *ABS*	00000000 __alt_stack_base
0505e10c g     F .text	00000054 altera_avalon_jtag_uart_ioctl_fd
05054750 g     F .text	00000154 __swsetup_r
0504d488 g     F .text	000008e8 .hidden __divdf3
050565f4 g     F .text	00000118 __sfp
050585bc g     F .text	00000078 __copybits
05061c08 g     O .rwdata	00000408 __malloc_av_
05056740 g     F .text	00000004 __sinit_lock_release
0505462c g     F .text	000000f0 _vsnprintf_r
0504ded4 g     F .text	00000718 .hidden __muldf3
05058c98 g     F .text	00000054 __sread
05060880 g     F .text	00000108 alt_find_file
050602a0 g     F .text	000000a4 alt_dev_llist_insert
0505d6ac g     F .text	00000024 __malloc_lock
05041cc0 g     F .text	00000044 vid_copy_line_to_frame_buffer
0505d890 g     F .text	000000b0 sbrk
05050184 g     F .text	000021d8 ___svfprintf_internal_r
05056348 g     F .text	0000005c _fflush_r
0505b9b8 g     F .text	000000c4 _calloc_r
05065790 g       *ABS*	00000000 __bss_start
0504049c g     F .text	00000670 LCD_Init
0504fcdc g     F .text	00000128 memset
050484f8 g     F .text	0000067c main
05045f68 g     F .text	00000078 _ZN7Cube_3D18update_translationEfff
050657e4 g     O .bss	00000004 alt_envp
050657bc g     O .bss	00000004 __malloc_max_total_mem
0505f43c g     F .text	00000060 alt_up_pixel_buffer_dma_swap_buffers
05040dcc g     F .text	00000088 myprintf_hexarray
0505e05c g     F .text	00000060 altera_avalon_jtag_uart_write_fd
05045064 g     F .text	0000005c _Z18init_accelerometerv
0505c038 g     F .text	00000018 __swbuf
05058dcc g     F .text	00000008 __sclose
05067100 g       *ABS*	00000000 __alt_heap_limit
05043d5c g     F .text	000001e8 vid_print_char_alpha
0505bb6c g     F .text	00000014 fclose
0504f154 g     F .text	000001a8 .hidden __truncdfsf2
05063778 g     O .rwdata	00000004 cour10_font
0505ed48 g     F .text	00000078 alt_timestamp_start
05054aa4 g     F .text	00001688 _dtoa_r
0504f388 g     F .text	0000080c _malloc_r
0505c1ac g     F .text	00000030 __ascii_wctomb
050637ac g     O .rwdata	00000004 alt_errno
05057064 g     F .text	000000c4 _fwalk
0504b5bc g     F .text	00000084 .hidden __divsi3
05040294 g     F .text	00000050 Delay_Ms
05056774 g     F .text	00000124 _malloc_trim_r
05060ef0 g       *ABS*	00000000 __CTOR_END__
0504c078 g     F .text	000003fc .hidden __mulsf3
05058dd4 g     F .text	000000dc strcmp
05043abc g     F .text	00000044 read_from_frame
05060ef0 g       *ABS*	00000000 __flash_rodata_start
05060ef0 g       *ABS*	00000000 __DTOR_LIST__
05048e8c g     F .text	000000a0 tan
05041a14 g     F .text	00000040 vid_get_pixel
0504b5a0 g     F .text	0000001c copysign
050459a4 g     F .text	000005c4 _ZN7Cube_3DC2Ev
0504dd70 g     F .text	00000088 .hidden __nedf2
0505dc7c g     F .text	00000038 alt_irq_init
0505d82c g     F .text	00000064 alt_release_fd
0504fff0 g     F .text	0000006c sprintf
0506145c g     O .rodata	00000100 .hidden __clz_tab
05040d2c g     F .text	00000034 debug_output
050657cc g     O .bss	00000004 _PathLocale
05060b58 g     F .text	00000014 atexit
05065790 g     O .bss	00000004 touch_pending
0505b904 g     F .text	00000060 _write_r
050572a4 g     F .text	00000018 setlocale
05048bf8  w    F .text	000000b8 _ZN7Cube_3D19calculate_renderingEv
0506378c g     O .rwdata	00000004 _impure_ptr
050657dc g     O .bss	00000004 alt_argc
0505612c g     F .text	0000021c __sflush_r
0504b404 g     F .text	0000019c scalbn
050657f0 g     O .bss	00000004 altera_avalon_timer_ts_base
050603a4 g     F .text	00000060 _do_dtors
05057290 g     F .text	00000008 __locale_cjk_lang
05040e54 g     F .text	00000090 myprintf_dwordarray
05040020 g       .exceptions	00000000 alt_irq_entry
050581e8 g     F .text	00000064 __ulp
0505675c g     F .text	00000018 __fp_unlock_all
05044238 g     F .text	00000184 Touch_GetXY
05063798 g     O .rwdata	00000008 alt_fs_list
05041620 g     F .text	00000108 vid_print_string
05040020 g       *ABS*	00000000 __ram_exceptions_start
0505ee60 g     F .text	0000003c alt_up_accelerometer_spi_open_dev
050572bc g     F .text	0000000c localeconv
0505edc0 g     F .text	00000080 alt_timestamp
00000000 g       *ABS*	00000000 __alt_mem_new_sdram_controller_0
050637c0 g       *ABS*	00000000 _edata
05065d48 g       *ABS*	00000000 _end
05042bb8 g     F .text	00000054 max3
0505bb80 g     F .text	00000164 __fputwc
05040248 g       *ABS*	00000000 __ram_exceptions_end
0505e52c g     F .text	000000f0 altera_avalon_jtag_uart_ioctl
05044fe0 g     F .text	00000084 _Z16is_point_in_rectP5POINTP4RECT
05041b68 g     F .text	0000004c vid_merge_colors
05058cf4 g     F .text	0000007c __swrite
05063784 g     O .rwdata	00000004 __malloc_trim_threshold
05057284 g     F .text	0000000c __locale_msgcharset
05060b6c g     F .text	00000038 exit
05057128 g     F .text	000000c4 _fwalk_reent
0504caec g     F .text	000000f0 .hidden __floatunsisf
05057fec g     F .text	000001fc __mdiff
0504b640 g     F .text	00000074 .hidden __modsi3
0505f144 g     F .text	000000cc alt_up_accelerometer_spi_read_z_axis
05067100 g       *ABS*	00000000 __alt_data_end
05040020 g     F .exceptions	00000000 alt_exception
05056738 g     F .text	00000004 __sfp_lock_release
05044a50 g     F .text	000000dc touch_xy_transform
05041970 g     F .text	000000a4 vid_set_pixel
05060eb8 g     F .text	00000034 _exit
0505ce84 g     F .text	0000012c alt_alarm_start
05041014 g     F .text	00000044 vid_scroll_string_quit
0505eee0 g     F .text	00000068 alt_up_accelerometer_spi_read
0505ef48 g     F .text	00000064 alt_up_accelerometer_spi_write
050572c8 g     F .text	000001bc __smakebuf_r
050500ec g     F .text	00000098 strlen
05060708 g     F .text	00000154 open
0504ddf8 g     F .text	000000dc .hidden __gedf2
05063794 g     O .rwdata	00000004 __wctomb
0505a3b8 g     F .text	00000018 __sprint_r
05060494 g     F .text	00000034 alt_icache_flush_all
050637b0 g     O .rwdata	00000004 alt_priority_mask
05046178 g     F .text	000003b8 _ZN7Cube_3D15update_rotationEfff
05045620 g     F .text	00000384 _Z51alt_up_pixel_buffer_dma_draw_line_enhanced_clippingP27alt_up_pixel_buffer_dma_deviiiiii
05054554 g     F .text	0000001c __vfprintf_internal
05045420 g     F .text	0000017c _Z44alt_up_pixel_buffer_dma_clear_screen_delayedP27alt_up_pixel_buffer_dma_devi
0505c1dc g     F .text	0000005c _wctomb_r
05044dec g     F .text	000001f4 _Z13GUI_desk_initP4RECTS0_S0_
0504e5ec g     F .text	000008fc .hidden __subdf3
05042dc8 g     F .text	00000244 vid_bres_scan_edges
05057a20 g     F .text	000000b0 __lo0bits
05046aa0 g     F .text	00000318 _ZN7Cube_3D13display_frameEv
050637b8 g     O .rwdata	00000008 alt_alarm_list
0504ab98 g     F .text	0000066c __kernel_tan
05042c60 g     F .text	00000064 max_diff3
05060344 g     F .text	00000060 _do_ctors
0504398c g     F .text	00000130 merge_color_channels
050657fc g     O .bss	00000014 Display
0505c0ec g     F .text	000000c0 wcrtomb
0505cfec g     F .text	000000d0 close
0504b770 g     F .text	000004c8 .hidden __addsf3
0505d49c g     F .text	00000084 alt_load
050441fc g     F .text	0000003c Touch_EmptyFifo
05044cdc g     F .text	00000110 _Z16GUI_show_welcomev
0505bd08 g     F .text	00000080 fputwc
0504f374 g     F .text	00000014 free
0505673c g     F .text	00000004 __sinit_lock_acquire
05057794 g     F .text	00000120 __multadd
0505776c g     F .text	00000028 _Bfree



Disassembly of section .entry:

05040000 <__reset>:
#if NIOS2_ICACHE_SIZE > 0 && defined(ALT_ALLOW_CODE_AT_RESET) && (!defined(ALT_SIM_OPTIMIZE) || defined(NIOS2_ECC_PRESENT))
    /* Assume the instruction cache size is always a power of two. */
#if NIOS2_ICACHE_SIZE > 0x8000
    movhi r2, %hi(NIOS2_ICACHE_SIZE)
#else
    movui r2, NIOS2_ICACHE_SIZE
 5040000:	00840014 	movui	r2,4096
#endif

0:
    initi r2
 5040004:	1001483a 	initi	r2
    addi r2, r2, -NIOS2_ICACHE_LINE_SIZE
 5040008:	10bff804 	addi	r2,r2,-32
    bgt r2, zero, 0b
 504000c:	00bffd16 	blt	zero,r2,5040004 <_gp+0xfffd488c>
 * Jump to the _start entry point in the .text section if reset code
 * is allowed or if optimizing for RTL simulation.
 */
#if defined(ALT_ALLOW_CODE_AT_RESET) || defined(ALT_SIM_OPTIMIZE)
    /* Jump to the _start entry point in the .text section. */
    movhi r1, %hi(_start)
 5040010:	00414134 	movhi	at,1284
    ori r1, r1, %lo(_start)
 5040014:	08409214 	ori	at,at,584
    jmp r1
 5040018:	0800683a 	jmp	at
 504001c:	00000000 	call	0 <__alt_mem_new_sdram_controller_0>

Disassembly of section .exceptions:

05040020 <alt_exception>:

#else /* ALT_EXCEPTION_STACK disabled */
        /* 
         * Reserve space on normal stack for registers about to be pushed.
         */
        addi  sp, sp, -76
 5040020:	deffed04 	addi	sp,sp,-76
         * documentation for details).
         *
         * Leave a gap in the stack frame at 4(sp) for the muldiv handler to
         * store zero into.
         */
        stw   ra,  0(sp)
 5040024:	dfc00015 	stw	ra,0(sp)
        stw   r1,   8(sp)
 5040028:	d8400215 	stw	at,8(sp)
        stw   r2,  12(sp)
 504002c:	d8800315 	stw	r2,12(sp)
        stw   r3,  16(sp)
 5040030:	d8c00415 	stw	r3,16(sp)
        stw   r4,  20(sp)
 5040034:	d9000515 	stw	r4,20(sp)
        stw   r5,  24(sp)
 5040038:	d9400615 	stw	r5,24(sp)
        stw   r6,  28(sp)
 504003c:	d9800715 	stw	r6,28(sp)
        stw   r7,  32(sp)
 5040040:	d9c00815 	stw	r7,32(sp)
        rdctl r5, estatus   /* Read early to avoid usage stall */
 5040044:	000b307a 	rdctl	r5,estatus
        stw   r8,  36(sp)
 5040048:	da000915 	stw	r8,36(sp)
        stw   r9,  40(sp)
 504004c:	da400a15 	stw	r9,40(sp)
        stw   r10, 44(sp)
 5040050:	da800b15 	stw	r10,44(sp)
        stw   r11, 48(sp)
 5040054:	dac00c15 	stw	r11,48(sp)
        stw   r12, 52(sp)
 5040058:	db000d15 	stw	r12,52(sp)
        stw   r13, 56(sp)
 504005c:	db400e15 	stw	r13,56(sp)
        stw   r14, 60(sp)
 5040060:	db800f15 	stw	r14,60(sp)
        stw   r15, 64(sp)
 5040064:	dbc01015 	stw	r15,64(sp)
        /*
         * ea-4 contains the address of the instruction being executed
         * when the exception occured. For interrupt exceptions, we will
         * will be re-issue the isntruction. Store it in 72(sp)
         */
        stw   r5,  68(sp)  /* estatus */
 5040068:	d9401115 	stw	r5,68(sp)
        addi  r15, ea, -4  /* instruction that caused exception */
 504006c:	ebffff04 	addi	r15,ea,-4
        stw   r15,  72(sp)
 5040070:	dbc01215 	stw	r15,72(sp)
#else
        /*
         * Test to see if the exception was a software exception or caused 
         * by an external interrupt, and vector accordingly.
         */
        rdctl r4, ipending
 5040074:	0009313a 	rdctl	r4,ipending
        andi  r2, r5, 1
 5040078:	2880004c 	andi	r2,r5,1
        beq   r2, zero, .Lnot_irq
 504007c:	10000326 	beq	r2,zero,504008c <alt_exception+0x6c>
        beq   r4, zero, .Lnot_irq
 5040080:	20000226 	beq	r4,zero,504008c <alt_exception+0x6c>
        /*
         * Now that all necessary registers have been preserved, call 
         * alt_irq_handler() to process the interrupts.
         */

        call alt_irq_handler
 5040084:	50400fc0 	call	50400fc <alt_irq_handler>

        .section .exceptions.irqreturn, "xa"

        br    .Lexception_exit
 5040088:	00000706 	br	50400a8 <alt_exception+0x88>
         * upon completion, so we write ea (address of instruction *after*
         * the one where the exception occured) into 72(sp). The actual
         * instruction that caused the exception is written in r2, which these
         * handlers will utilize.
         */
        stw ea, 72(sp) /* EA is PC+4 so will skip over instruction causing exception */
 504008c:	df401215 	stw	ea,72(sp)
.Lunknown_16bit:
        addi.n r4, r4, 2 /* Need PC+2 to skip over instruction causing exception */
        stw r4, 72(sp)

#else /* CDX is not Enabled and all instructions are 32bits */
        ldw r2, -4(ea) /* Instruction value that caused exception */
 5040090:	e8bfff17 	ldw	r2,-4(ea)
         * debugger is present) or go into an infinite loop since the
         * handling behavior is undefined; in that case we will not return here.
         */

        /* Load exception-causing address as first argument (r4) */
        addi   r4, ea, -4
 5040094:	e93fff04 	addi	r4,ea,-4

        /* Call the instruction-exception entry */
        call   alt_instruction_exception_entry
 5040098:	50401d40 	call	50401d4 <alt_instruction_exception_entry>
         * instruction
         *
         * Return code was 0: Skip. The instruction after the exception is
         * already stored in 72(sp).
         */
        bne   r2, r0, .Lexception_exit
 504009c:	1000021e 	bne	r2,zero,50400a8 <alt_exception+0x88>

        /*
         * Otherwise, modify 72(sp) to re-issue the instruction that caused the
         * exception.
         */
        addi  r15, ea, -4  /* instruction that caused exception */
 50400a0:	ebffff04 	addi	r15,ea,-4
        stw   r15,  72(sp)
 50400a4:	dbc01215 	stw	r15,72(sp)
        /* 
         * Restore the saved registers, so that all general purpose registers 
         * have been restored to their state at the time the interrupt occured.
         */

        ldw   r5,  68(sp)
 50400a8:	d9401117 	ldw	r5,68(sp)
        ldw   ea,  72(sp)  /* This becomes the PC once eret is executed */
 50400ac:	df401217 	ldw	ea,72(sp)
        ldw   ra,   0(sp)
 50400b0:	dfc00017 	ldw	ra,0(sp)

        wrctl estatus, r5
 50400b4:	2801707a 	wrctl	estatus,r5

        ldw   r1,   8(sp)
 50400b8:	d8400217 	ldw	at,8(sp)
        ldw   r2,  12(sp)
 50400bc:	d8800317 	ldw	r2,12(sp)
        ldw   r3,  16(sp)
 50400c0:	d8c00417 	ldw	r3,16(sp)
        ldw   r4,  20(sp)
 50400c4:	d9000517 	ldw	r4,20(sp)
        ldw   r5,  24(sp)
 50400c8:	d9400617 	ldw	r5,24(sp)
        ldw   r6,  28(sp)
 50400cc:	d9800717 	ldw	r6,28(sp)
        ldw   r7,  32(sp)
 50400d0:	d9c00817 	ldw	r7,32(sp)

#if defined(ALT_EXCEPTION_STACK) && defined(ALT_STACK_CHECK)
        ldw   et, %gprel(alt_exception_old_stack_limit)(gp)
#endif

        ldw   r8,  36(sp)
 50400d4:	da000917 	ldw	r8,36(sp)
        ldw   r9,  40(sp)
 50400d8:	da400a17 	ldw	r9,40(sp)
        ldw   r10, 44(sp)
 50400dc:	da800b17 	ldw	r10,44(sp)
        ldw   r11, 48(sp)
 50400e0:	dac00c17 	ldw	r11,48(sp)
        ldw   r12, 52(sp)
 50400e4:	db000d17 	ldw	r12,52(sp)
        ldw   r13, 56(sp)
 50400e8:	db400e17 	ldw	r13,56(sp)
        ldw   r14, 60(sp)
 50400ec:	db800f17 	ldw	r14,60(sp)
        ldw   r15, 64(sp)
 50400f0:	dbc01017 	ldw	r15,64(sp)
        stw   et, %gprel(alt_stack_limit_value)(gp)
        stw   zero, %gprel(alt_exception_old_stack_limit)(gp)
#endif /* ALT_STACK_CHECK */
        ldw   sp,  76(sp)
#else /* ALT_EXCEPTION_STACK disabled */
        addi  sp, sp, 76
 50400f4:	dec01304 	addi	sp,sp,76

        /*
         * Return to the interrupted instruction.
         */

        eret
 50400f8:	ef80083a 	eret

050400fc <alt_irq_handler>:
 * instruction is present if the macro ALT_CI_INTERRUPT_VECTOR defined.
 */

void alt_irq_handler (void) __attribute__ ((section (".exceptions")));
void alt_irq_handler (void)
{
 50400fc:	defff904 	addi	sp,sp,-28
 5040100:	dfc00615 	stw	ra,24(sp)
 5040104:	df000515 	stw	fp,20(sp)
 5040108:	df000504 	addi	fp,sp,20
  
  /*
   * Notify the operating system that we are at interrupt level.
   */ 
  
  ALT_OS_INT_ENTER();
 504010c:	0001883a 	nop
#ifndef NIOS2_EIC_PRESENT
static ALT_INLINE alt_u32 ALT_ALWAYS_INLINE alt_irq_pending (void)
{
  alt_u32 active;

  NIOS2_READ_IPENDING (active);
 5040110:	0005313a 	rdctl	r2,ipending
 5040114:	e0bffe15 	stw	r2,-8(fp)

  return active;
 5040118:	e0bffe17 	ldw	r2,-8(fp)
   * Consider the case where the high priority interupt is asserted during
   * the interrupt entry sequence for a lower priority interrupt to see why
   * this is the case.
   */

  active = alt_irq_pending ();
 504011c:	e0bffb15 	stw	r2,-20(fp)

  do
  {
    i = 0;
 5040120:	e03ffd15 	stw	zero,-12(fp)
    mask = 1;
 5040124:	00800044 	movi	r2,1
 5040128:	e0bffc15 	stw	r2,-16(fp)
     * called to clear the interrupt condition.
     */

    do
    {
      if (active & mask)
 504012c:	e0fffb17 	ldw	r3,-20(fp)
 5040130:	e0bffc17 	ldw	r2,-16(fp)
 5040134:	1884703a 	and	r2,r3,r2
 5040138:	10001526 	beq	r2,zero,5040190 <alt_irq_handler+0x94>
      { 
#ifdef ALT_ENHANCED_INTERRUPT_API_PRESENT
        alt_irq[i].handler(alt_irq[i].context); 
#else
        alt_irq[i].handler(alt_irq[i].context, i); 
 504013c:	008141b4 	movhi	r2,1286
 5040140:	10971204 	addi	r2,r2,23624
 5040144:	e0fffd17 	ldw	r3,-12(fp)
 5040148:	180690fa 	slli	r3,r3,3
 504014c:	10c5883a 	add	r2,r2,r3
 5040150:	10c00017 	ldw	r3,0(r2)
 5040154:	008141b4 	movhi	r2,1286
 5040158:	10971204 	addi	r2,r2,23624
 504015c:	e13ffd17 	ldw	r4,-12(fp)
 5040160:	200890fa 	slli	r4,r4,3
 5040164:	1105883a 	add	r2,r2,r4
 5040168:	10800104 	addi	r2,r2,4
 504016c:	10800017 	ldw	r2,0(r2)
 5040170:	e17ffd17 	ldw	r5,-12(fp)
 5040174:	1009883a 	mov	r4,r2
 5040178:	183ee83a 	callr	r3
#endif
        break;
 504017c:	0001883a 	nop
#ifndef NIOS2_EIC_PRESENT
static ALT_INLINE alt_u32 ALT_ALWAYS_INLINE alt_irq_pending (void)
{
  alt_u32 active;

  NIOS2_READ_IPENDING (active);
 5040180:	0005313a 	rdctl	r2,ipending
 5040184:	e0bfff15 	stw	r2,-4(fp)

  return active;
 5040188:	e0bfff17 	ldw	r2,-4(fp)
 504018c:	00000706 	br	50401ac <alt_irq_handler+0xb0>
      }
      mask <<= 1;
 5040190:	e0bffc17 	ldw	r2,-16(fp)
 5040194:	1085883a 	add	r2,r2,r2
 5040198:	e0bffc15 	stw	r2,-16(fp)
      i++;
 504019c:	e0bffd17 	ldw	r2,-12(fp)
 50401a0:	10800044 	addi	r2,r2,1
 50401a4:	e0bffd15 	stw	r2,-12(fp)

    } while (1);
 50401a8:	003fe006 	br	504012c <_gp+0xfffd49b4>

    active = alt_irq_pending ();
 50401ac:	e0bffb15 	stw	r2,-20(fp)
    
  } while (active);
 50401b0:	e0bffb17 	ldw	r2,-20(fp)
 50401b4:	103fda1e 	bne	r2,zero,5040120 <_gp+0xfffd49a8>

  /*
   * Notify the operating system that interrupt processing is complete.
   */ 

  ALT_OS_INT_EXIT();
 50401b8:	0001883a 	nop
}
 50401bc:	0001883a 	nop
 50401c0:	e037883a 	mov	sp,fp
 50401c4:	dfc00117 	ldw	ra,4(sp)
 50401c8:	df000017 	ldw	fp,0(sp)
 50401cc:	dec00204 	addi	sp,sp,8
 50401d0:	f800283a 	ret

050401d4 <alt_instruction_exception_entry>:
 * that handler if it has been registered. Absent a handler, it will
 * break break or hang as discussed below.
 */
int 
alt_instruction_exception_entry (alt_u32 exception_pc)
{
 50401d4:	defffb04 	addi	sp,sp,-20
 50401d8:	dfc00415 	stw	ra,16(sp)
 50401dc:	df000315 	stw	fp,12(sp)
 50401e0:	df000304 	addi	fp,sp,12
 50401e4:	e13fff15 	stw	r4,-4(fp)
 * NIOS2_EXCEPTION_CAUSE_NOT_PRESENT. Your handling routine should
 * check the validity of the cause argument before proceeding.
 */
#ifdef NIOS2_HAS_EXTRA_EXCEPTION_INFO
  /* Get exception cause & "badaddr" */
  NIOS2_READ_EXCEPTION(cause);
 50401e8:	000531fa 	rdctl	r2,exception
 50401ec:	e0bffd15 	stw	r2,-12(fp)
  cause = ( (cause & NIOS2_EXCEPTION_REG_CAUSE_MASK) >>
 50401f0:	e0bffd17 	ldw	r2,-12(fp)
 50401f4:	10801f0c 	andi	r2,r2,124
 50401f8:	1004d0ba 	srli	r2,r2,2
 50401fc:	e0bffd15 	stw	r2,-12(fp)
              NIOS2_EXCEPTION_REG_CAUSE_OFST );

  NIOS2_READ_BADADDR(badaddr);
 5040200:	0005333a 	rdctl	r2,badaddr
 5040204:	e0bffe15 	stw	r2,-8(fp)
#else
  cause = NIOS2_EXCEPTION_CAUSE_NOT_PRESENT;
  badaddr = 0;
#endif /* NIOS2_HAS_EXTRA_EXCEPTION_INFO */

  if(alt_instruction_exception_handler) {
 5040208:	d0a82017 	ldw	r2,-24448(gp)
 504020c:	10000726 	beq	r2,zero,504022c <alt_instruction_exception_entry+0x58>
     * Call handler. Its return value indicates whether the exception-causing
     * instruction should be re-issued. The code that called us,
     * alt_eceptions_entry.S, will look at this value and adjust the ea
     * register as necessary
     */
    return alt_instruction_exception_handler(cause, exception_pc, badaddr);
 5040210:	d0a82017 	ldw	r2,-24448(gp)
 5040214:	e0fffd17 	ldw	r3,-12(fp)
 5040218:	e1bffe17 	ldw	r6,-8(fp)
 504021c:	e17fff17 	ldw	r5,-4(fp)
 5040220:	1809883a 	mov	r4,r3
 5040224:	103ee83a 	callr	r2
 5040228:	00000206 	br	5040234 <alt_instruction_exception_entry+0x60>
   *    (a peripheral which negates its interrupt output before its
   *    interrupt handler has been executed will cause spurious interrupts)
   */
  else {
#ifdef NIOS2_HAS_DEBUG_STUB
    NIOS2_BREAK();
 504022c:	003da03a 	break	0
      ;
#endif /* NIOS2_HAS_DEBUG_STUB */
  }

  /* We should not get here. Remove compiler warning. */
  return NIOS2_EXCEPTION_RETURN_REISSUE_INST;
 5040230:	0005883a 	mov	r2,zero
}
 5040234:	e037883a 	mov	sp,fp
 5040238:	dfc00117 	ldw	ra,4(sp)
 504023c:	df000017 	ldw	fp,0(sp)
 5040240:	dec00204 	addi	sp,sp,8
 5040244:	f800283a 	ret

Disassembly of section .text:

05040248 <_start>:

    /* Assume the data cache size is always a power of two. */
#if NIOS2_DCACHE_SIZE > 0x8000
    movhi r2, %hi(NIOS2_DCACHE_SIZE)
#else
    movui r2, NIOS2_DCACHE_SIZE
 5040248:	00820014 	movui	r2,2048
#endif

0:
    initd 0(r2)
 504024c:	10000033 	initd	0(r2)
#ifdef NIOS2_ECC_PRESENT
    addi r2, r2, -4
#else
    addi r2, r2, -NIOS2_DCACHE_LINE_SIZE
 5040250:	10bff804 	addi	r2,r2,-32
#endif
    bgt r2, zero, 0b
 5040254:	00bffd16 	blt	zero,r2,504024c <_gp+0xfffd4ad4>

    /*
     * Now that the caches are initialized, set up the stack pointer and global pointer.
     * The values provided by the linker are assumed to be correctly aligned.
     */
    movhi sp, %hi(__alt_stack_pointer)
 5040258:	06c141b4 	movhi	sp,1286
    ori sp, sp, %lo(__alt_stack_pointer)
 504025c:	dedc4014 	ori	sp,sp,28928
    movhi gp, %hi(_gp)
 5040260:	068141b4 	movhi	gp,1286
    ori gp, gp, %lo(_gp)
 5040264:	d6adde14 	ori	gp,gp,46968
 */
#ifndef ALT_SIM_OPTIMIZE
    /* Log that the BSS is about to be cleared. */
    ALT_LOG_PUTS(alt_log_msg_bss)

    movhi r2, %hi(__bss_start)
 5040268:	008141b4 	movhi	r2,1286
    ori r2, r2, %lo(__bss_start)
 504026c:	1095e414 	ori	r2,r2,22416

    movhi r3, %hi(__bss_end)
 5040270:	00c141b4 	movhi	r3,1286
    ori r3, r3, %lo(__bss_end)
 5040274:	18d75214 	ori	r3,r3,23880

    beq r2, r3, 1f
 5040278:	10c00326 	beq	r2,r3,5040288 <_start+0x40>

0:
    stw zero, (r2)
 504027c:	10000015 	stw	zero,0(r2)
    addi r2, r2, 4
 5040280:	10800104 	addi	r2,r2,4
    bltu r2, r3, 0b
 5040284:	10fffd36 	bltu	r2,r3,504027c <_gp+0xfffd4b04>
     * section aren't defined until alt_load() has been called).
     */
    mov   et, zero
#endif

    call alt_load
 5040288:	505d49c0 	call	505d49c <alt_load>

    /* Log that alt_main is about to be called. */
    ALT_LOG_PUTS(alt_log_msg_alt_main)

    /* Call the C entry point. It should never return. */
    call alt_main
 504028c:	505d6300 	call	505d630 <alt_main>

05040290 <alt_after_alt_main>:

    /* Wait in infinite loop in case alt_main does return. */
alt_after_alt_main:
    br alt_after_alt_main
 5040290:	003fff06 	br	5040290 <_gp+0xfffd4b18>

05040294 <Delay_Ms>:
#define BLUE 0x001f
#define BLACK  0x0000
#define WHITE 0xffff

void Delay_Ms(alt_u16 count_ms)
{
 5040294:	defffd04 	addi	sp,sp,-12
 5040298:	dfc00215 	stw	ra,8(sp)
 504029c:	df000115 	stw	fp,4(sp)
 50402a0:	df000104 	addi	fp,sp,4
 50402a4:	2005883a 	mov	r2,r4
 50402a8:	e0bfff0d 	sth	r2,-4(fp)
    while(count_ms--)
 50402ac:	00000206 	br	50402b8 <Delay_Ms+0x24>
    {
        usleep(1000);
 50402b0:	0100fa04 	movi	r4,1000
 50402b4:	505dae40 	call	505dae4 <usleep>
#define BLACK  0x0000
#define WHITE 0xffff

void Delay_Ms(alt_u16 count_ms)
{
    while(count_ms--)
 50402b8:	e0bfff0b 	ldhu	r2,-4(fp)
 50402bc:	10ffffc4 	addi	r3,r2,-1
 50402c0:	e0ffff0d 	sth	r3,-4(fp)
 50402c4:	10bfffcc 	andi	r2,r2,65535
 50402c8:	103ff91e 	bne	r2,zero,50402b0 <_gp+0xfffd4b38>
    {
        usleep(1000);
    }
}
 50402cc:	0001883a 	nop
 50402d0:	e037883a 	mov	sp,fp
 50402d4:	dfc00117 	ldw	ra,4(sp)
 50402d8:	df000017 	ldw	fp,0(sp)
 50402dc:	dec00204 	addi	sp,sp,8
 50402e0:	f800283a 	ret

050402e4 <LCD_SetCursor>:


void LCD_SetCursor(alt_u16 Xpos, alt_u16 Ypos)
{
 50402e4:	defffd04 	addi	sp,sp,-12
 50402e8:	df000215 	stw	fp,8(sp)
 50402ec:	df000204 	addi	fp,sp,8
 50402f0:	2007883a 	mov	r3,r4
 50402f4:	2805883a 	mov	r2,r5
 50402f8:	e0fffe0d 	sth	r3,-8(fp)
 50402fc:	e0bfff0d 	sth	r2,-4(fp)
	 LCD_WR_REG(0x002A);
 5040300:	00c00a84 	movi	r3,42
 5040304:	00810034 	movhi	r2,1024
 5040308:	10801404 	addi	r2,r2,80
 504030c:	10c00035 	stwio	r3,0(r2)
		 LCD_WR_DATA(Xpos>>8);
 5040310:	e0bffe0b 	ldhu	r2,-8(fp)
 5040314:	1004d23a 	srli	r2,r2,8
 5040318:	10ffffcc 	andi	r3,r2,65535
 504031c:	00810034 	movhi	r2,1024
 5040320:	10801504 	addi	r2,r2,84
 5040324:	10c00035 	stwio	r3,0(r2)
		 LCD_WR_DATA(Xpos&0XFF);
 5040328:	e0bffe0b 	ldhu	r2,-8(fp)
 504032c:	10c03fcc 	andi	r3,r2,255
 5040330:	00810034 	movhi	r2,1024
 5040334:	10801504 	addi	r2,r2,84
 5040338:	10c00035 	stwio	r3,0(r2)
	 LCD_WR_REG(0x002B);
 504033c:	00c00ac4 	movi	r3,43
 5040340:	00810034 	movhi	r2,1024
 5040344:	10801404 	addi	r2,r2,80
 5040348:	10c00035 	stwio	r3,0(r2)
		 LCD_WR_DATA(Ypos>>8);
 504034c:	e0bfff0b 	ldhu	r2,-4(fp)
 5040350:	1004d23a 	srli	r2,r2,8
 5040354:	10ffffcc 	andi	r3,r2,65535
 5040358:	00810034 	movhi	r2,1024
 504035c:	10801504 	addi	r2,r2,84
 5040360:	10c00035 	stwio	r3,0(r2)
		 LCD_WR_DATA(Ypos&0XFF);
 5040364:	e0bfff0b 	ldhu	r2,-4(fp)
 5040368:	10c03fcc 	andi	r3,r2,255
 504036c:	00810034 	movhi	r2,1024
 5040370:	10801504 	addi	r2,r2,84
 5040374:	10c00035 	stwio	r3,0(r2)
	 LCD_WR_REG(0x002C);
 5040378:	00c00b04 	movi	r3,44
 504037c:	00810034 	movhi	r2,1024
 5040380:	10801404 	addi	r2,r2,80
 5040384:	10c00035 	stwio	r3,0(r2)
}
 5040388:	0001883a 	nop
 504038c:	e037883a 	mov	sp,fp
 5040390:	df000017 	ldw	fp,0(sp)
 5040394:	dec00104 	addi	sp,sp,4
 5040398:	f800283a 	ret

0504039c <LCD_Clear>:

void LCD_Clear(alt_u16 Color)
{
 504039c:	defffc04 	addi	sp,sp,-16
 50403a0:	dfc00315 	stw	ra,12(sp)
 50403a4:	df000215 	stw	fp,8(sp)
 50403a8:	df000204 	addi	fp,sp,8
 50403ac:	2005883a 	mov	r2,r4
 50403b0:	e0bfff0d 	sth	r2,-4(fp)
        alt_u32 index=0;
 50403b4:	e03ffe15 	stw	zero,-8(fp)
        LCD_SetCursor(0x00,0x0000);
 50403b8:	000b883a 	mov	r5,zero
 50403bc:	0009883a 	mov	r4,zero
 50403c0:	50402e40 	call	50402e4 <LCD_SetCursor>
        LCD_WR_REG(0x002C);
 50403c4:	00c00b04 	movi	r3,44
 50403c8:	00810034 	movhi	r2,1024
 50403cc:	10801404 	addi	r2,r2,80
 50403d0:	10c00035 	stwio	r3,0(r2)
        for(index=0;index<76800;index++)
 50403d4:	e03ffe15 	stw	zero,-8(fp)
 50403d8:	00000706 	br	50403f8 <LCD_Clear+0x5c>
        {
        	LCD_WR_DATA(Color);
 50403dc:	e0ffff0b 	ldhu	r3,-4(fp)
 50403e0:	00810034 	movhi	r2,1024
 50403e4:	10801504 	addi	r2,r2,84
 50403e8:	10c00035 	stwio	r3,0(r2)
void LCD_Clear(alt_u16 Color)
{
        alt_u32 index=0;
        LCD_SetCursor(0x00,0x0000);
        LCD_WR_REG(0x002C);
        for(index=0;index<76800;index++)
 50403ec:	e0bffe17 	ldw	r2,-8(fp)
 50403f0:	10800044 	addi	r2,r2,1
 50403f4:	e0bffe15 	stw	r2,-8(fp)
 50403f8:	e0fffe17 	ldw	r3,-8(fp)
 50403fc:	00800074 	movhi	r2,1
 5040400:	108affc4 	addi	r2,r2,11263
 5040404:	10fff52e 	bgeu	r2,r3,50403dc <_gp+0xfffd4c64>
        {
        	LCD_WR_DATA(Color);
        }
}
 5040408:	0001883a 	nop
 504040c:	e037883a 	mov	sp,fp
 5040410:	dfc00117 	ldw	ra,4(sp)
 5040414:	df000017 	ldw	fp,0(sp)
 5040418:	dec00204 	addi	sp,sp,8
 504041c:	f800283a 	ret

05040420 <LCD_DrawPoint>:

void LCD_DrawPoint(alt_u16 x,alt_u16 y,alt_u16 color )
{
 5040420:	defffb04 	addi	sp,sp,-20
 5040424:	dfc00415 	stw	ra,16(sp)
 5040428:	df000315 	stw	fp,12(sp)
 504042c:	df000304 	addi	fp,sp,12
 5040430:	2807883a 	mov	r3,r5
 5040434:	3005883a 	mov	r2,r6
 5040438:	e13ffd0d 	sth	r4,-12(fp)
 504043c:	e0fffe0d 	sth	r3,-8(fp)
 5040440:	e0bfff0d 	sth	r2,-4(fp)
        LCD_SetCursor(239-y,x); //modificato per rigirare di 90 gradi il display
 5040444:	e0bffe0b 	ldhu	r2,-8(fp)
 5040448:	00c03bc4 	movi	r3,239
 504044c:	1885c83a 	sub	r2,r3,r2
 5040450:	10bfffcc 	andi	r2,r2,65535
 5040454:	e0fffd0b 	ldhu	r3,-12(fp)
 5040458:	180b883a 	mov	r5,r3
 504045c:	1009883a 	mov	r4,r2
 5040460:	50402e40 	call	50402e4 <LCD_SetCursor>
        LCD_WR_REG(0x002C);
 5040464:	00c00b04 	movi	r3,44
 5040468:	00810034 	movhi	r2,1024
 504046c:	10801404 	addi	r2,r2,80
 5040470:	10c00035 	stwio	r3,0(r2)
        LCD_WR_DATA(color);
 5040474:	e0ffff0b 	ldhu	r3,-4(fp)
 5040478:	00810034 	movhi	r2,1024
 504047c:	10801504 	addi	r2,r2,84
 5040480:	10c00035 	stwio	r3,0(r2)
}
 5040484:	0001883a 	nop
 5040488:	e037883a 	mov	sp,fp
 504048c:	dfc00117 	ldw	ra,4(sp)
 5040490:	df000017 	ldw	fp,0(sp)
 5040494:	dec00204 	addi	sp,sp,8
 5040498:	f800283a 	ret

0504049c <LCD_Init>:
void LCD_Init()
{
 504049c:	defffe04 	addi	sp,sp,-8
 50404a0:	dfc00115 	stw	ra,4(sp)
 50404a4:	df000015 	stw	fp,0(sp)
 50404a8:	d839883a 	mov	fp,sp
	alt_u16 data1,data2;
	alt_u16 data3,data4;
	Set_LCD_RST;
 50404ac:	00c00044 	movi	r3,1
 50404b0:	00810034 	movhi	r2,1024
 50404b4:	10801004 	addi	r2,r2,64
 50404b8:	10c00035 	stwio	r3,0(r2)
	Delay_Ms(1);
 50404bc:	01000044 	movi	r4,1
 50404c0:	50402940 	call	5040294 <Delay_Ms>
	Clr_LCD_RST;
 50404c4:	0007883a 	mov	r3,zero
 50404c8:	00810034 	movhi	r2,1024
 50404cc:	10801004 	addi	r2,r2,64
 50404d0:	10c00035 	stwio	r3,0(r2)
	Delay_Ms(10);       // Delay 10ms // This delay time is necessary
 50404d4:	01000284 	movi	r4,10
 50404d8:	50402940 	call	5040294 <Delay_Ms>
	Set_LCD_RST;
 50404dc:	00c00044 	movi	r3,1
 50404e0:	00810034 	movhi	r2,1024
 50404e4:	10801004 	addi	r2,r2,64
 50404e8:	10c00035 	stwio	r3,0(r2)
	Delay_Ms(120);       // Delay 120 ms
 50404ec:	01001e04 	movi	r4,120
 50404f0:	50402940 	call	5040294 <Delay_Ms>
//	Clr_LCD_CS;



	LCD_WR_REG(0x0011); //Exit Sleep
 50404f4:	00c00444 	movi	r3,17
 50404f8:	00810034 	movhi	r2,1024
 50404fc:	10801404 	addi	r2,r2,80
 5040500:	10c00035 	stwio	r3,0(r2)
	LCD_WR_REG(0x00CF);
 5040504:	00c033c4 	movi	r3,207
 5040508:	00810034 	movhi	r2,1024
 504050c:	10801404 	addi	r2,r2,80
 5040510:	10c00035 	stwio	r3,0(r2)
		LCD_WR_DATA(0x0000);
 5040514:	0007883a 	mov	r3,zero
 5040518:	00810034 	movhi	r2,1024
 504051c:	10801504 	addi	r2,r2,84
 5040520:	10c00035 	stwio	r3,0(r2)
		LCD_WR_DATA(0x0081);
 5040524:	00c02044 	movi	r3,129
 5040528:	00810034 	movhi	r2,1024
 504052c:	10801504 	addi	r2,r2,84
 5040530:	10c00035 	stwio	r3,0(r2)
		LCD_WR_DATA(0X00c0);
 5040534:	00c03004 	movi	r3,192
 5040538:	00810034 	movhi	r2,1024
 504053c:	10801504 	addi	r2,r2,84
 5040540:	10c00035 	stwio	r3,0(r2)

	LCD_WR_REG(0x00ED);
 5040544:	00c03b44 	movi	r3,237
 5040548:	00810034 	movhi	r2,1024
 504054c:	10801404 	addi	r2,r2,80
 5040550:	10c00035 	stwio	r3,0(r2)
		LCD_WR_DATA(0x0064);
 5040554:	00c01904 	movi	r3,100
 5040558:	00810034 	movhi	r2,1024
 504055c:	10801504 	addi	r2,r2,84
 5040560:	10c00035 	stwio	r3,0(r2)
		LCD_WR_DATA(0x0003);
 5040564:	00c000c4 	movi	r3,3
 5040568:	00810034 	movhi	r2,1024
 504056c:	10801504 	addi	r2,r2,84
 5040570:	10c00035 	stwio	r3,0(r2)
		LCD_WR_DATA(0X0012);
 5040574:	00c00484 	movi	r3,18
 5040578:	00810034 	movhi	r2,1024
 504057c:	10801504 	addi	r2,r2,84
 5040580:	10c00035 	stwio	r3,0(r2)
		LCD_WR_DATA(0X0081);
 5040584:	00c02044 	movi	r3,129
 5040588:	00810034 	movhi	r2,1024
 504058c:	10801504 	addi	r2,r2,84
 5040590:	10c00035 	stwio	r3,0(r2)

	LCD_WR_REG(0x00E8);
 5040594:	00c03a04 	movi	r3,232
 5040598:	00810034 	movhi	r2,1024
 504059c:	10801404 	addi	r2,r2,80
 50405a0:	10c00035 	stwio	r3,0(r2)
		LCD_WR_DATA(0x0085);
 50405a4:	00c02144 	movi	r3,133
 50405a8:	00810034 	movhi	r2,1024
 50405ac:	10801504 	addi	r2,r2,84
 50405b0:	10c00035 	stwio	r3,0(r2)
		LCD_WR_DATA(0x0001);
 50405b4:	00c00044 	movi	r3,1
 50405b8:	00810034 	movhi	r2,1024
 50405bc:	10801504 	addi	r2,r2,84
 50405c0:	10c00035 	stwio	r3,0(r2)
		LCD_WR_DATA(0x00798);
 50405c4:	00c1e604 	movi	r3,1944
 50405c8:	00810034 	movhi	r2,1024
 50405cc:	10801504 	addi	r2,r2,84
 50405d0:	10c00035 	stwio	r3,0(r2)

	LCD_WR_REG(0x00CB);
 50405d4:	00c032c4 	movi	r3,203
 50405d8:	00810034 	movhi	r2,1024
 50405dc:	10801404 	addi	r2,r2,80
 50405e0:	10c00035 	stwio	r3,0(r2)
		LCD_WR_DATA(0x0039);
 50405e4:	00c00e44 	movi	r3,57
 50405e8:	00810034 	movhi	r2,1024
 50405ec:	10801504 	addi	r2,r2,84
 50405f0:	10c00035 	stwio	r3,0(r2)
		LCD_WR_DATA(0x002C);
 50405f4:	00c00b04 	movi	r3,44
 50405f8:	00810034 	movhi	r2,1024
 50405fc:	10801504 	addi	r2,r2,84
 5040600:	10c00035 	stwio	r3,0(r2)
		LCD_WR_DATA(0x0000);
 5040604:	0007883a 	mov	r3,zero
 5040608:	00810034 	movhi	r2,1024
 504060c:	10801504 	addi	r2,r2,84
 5040610:	10c00035 	stwio	r3,0(r2)
		LCD_WR_DATA(0x0034);
 5040614:	00c00d04 	movi	r3,52
 5040618:	00810034 	movhi	r2,1024
 504061c:	10801504 	addi	r2,r2,84
 5040620:	10c00035 	stwio	r3,0(r2)
		LCD_WR_DATA(0x0002);
 5040624:	00c00084 	movi	r3,2
 5040628:	00810034 	movhi	r2,1024
 504062c:	10801504 	addi	r2,r2,84
 5040630:	10c00035 	stwio	r3,0(r2)

	LCD_WR_REG(0x00F7);
 5040634:	00c03dc4 	movi	r3,247
 5040638:	00810034 	movhi	r2,1024
 504063c:	10801404 	addi	r2,r2,80
 5040640:	10c00035 	stwio	r3,0(r2)
		LCD_WR_DATA(0x0020);
 5040644:	00c00804 	movi	r3,32
 5040648:	00810034 	movhi	r2,1024
 504064c:	10801504 	addi	r2,r2,84
 5040650:	10c00035 	stwio	r3,0(r2)

	LCD_WR_REG(0x00EA);
 5040654:	00c03a84 	movi	r3,234
 5040658:	00810034 	movhi	r2,1024
 504065c:	10801404 	addi	r2,r2,80
 5040660:	10c00035 	stwio	r3,0(r2)
		LCD_WR_DATA(0x0000);
 5040664:	0007883a 	mov	r3,zero
 5040668:	00810034 	movhi	r2,1024
 504066c:	10801504 	addi	r2,r2,84
 5040670:	10c00035 	stwio	r3,0(r2)
		LCD_WR_DATA(0x0000);
 5040674:	0007883a 	mov	r3,zero
 5040678:	00810034 	movhi	r2,1024
 504067c:	10801504 	addi	r2,r2,84
 5040680:	10c00035 	stwio	r3,0(r2)

	LCD_WR_REG(0x00B1);
 5040684:	00c02c44 	movi	r3,177
 5040688:	00810034 	movhi	r2,1024
 504068c:	10801404 	addi	r2,r2,80
 5040690:	10c00035 	stwio	r3,0(r2)
		LCD_WR_DATA(0x0000);
 5040694:	0007883a 	mov	r3,zero
 5040698:	00810034 	movhi	r2,1024
 504069c:	10801504 	addi	r2,r2,84
 50406a0:	10c00035 	stwio	r3,0(r2)
		LCD_WR_DATA(0x001b);
 50406a4:	00c006c4 	movi	r3,27
 50406a8:	00810034 	movhi	r2,1024
 50406ac:	10801504 	addi	r2,r2,84
 50406b0:	10c00035 	stwio	r3,0(r2)

	LCD_WR_REG(0x00B6);
 50406b4:	00c02d84 	movi	r3,182
 50406b8:	00810034 	movhi	r2,1024
 50406bc:	10801404 	addi	r2,r2,80
 50406c0:	10c00035 	stwio	r3,0(r2)
		LCD_WR_DATA(0x000A);
 50406c4:	00c00284 	movi	r3,10
 50406c8:	00810034 	movhi	r2,1024
 50406cc:	10801504 	addi	r2,r2,84
 50406d0:	10c00035 	stwio	r3,0(r2)
		LCD_WR_DATA(0x00A2);
 50406d4:	00c02884 	movi	r3,162
 50406d8:	00810034 	movhi	r2,1024
 50406dc:	10801504 	addi	r2,r2,84
 50406e0:	10c00035 	stwio	r3,0(r2)

	LCD_WR_REG(0x00C0);    //Power control
 50406e4:	00c03004 	movi	r3,192
 50406e8:	00810034 	movhi	r2,1024
 50406ec:	10801404 	addi	r2,r2,80
 50406f0:	10c00035 	stwio	r3,0(r2)
		LCD_WR_DATA(0x0005);   //VRH[5:0]
 50406f4:	00c00144 	movi	r3,5
 50406f8:	00810034 	movhi	r2,1024
 50406fc:	10801504 	addi	r2,r2,84
 5040700:	10c00035 	stwio	r3,0(r2)

	LCD_WR_REG(0x00C1);    //Power control
 5040704:	00c03044 	movi	r3,193
 5040708:	00810034 	movhi	r2,1024
 504070c:	10801404 	addi	r2,r2,80
 5040710:	10c00035 	stwio	r3,0(r2)
		LCD_WR_DATA(0x0011);   //SAP[2:0];BT[3:0]
 5040714:	00c00444 	movi	r3,17
 5040718:	00810034 	movhi	r2,1024
 504071c:	10801504 	addi	r2,r2,84
 5040720:	10c00035 	stwio	r3,0(r2)

	LCD_WR_REG(0x00C5);    //VCM control
 5040724:	00c03144 	movi	r3,197
 5040728:	00810034 	movhi	r2,1024
 504072c:	10801404 	addi	r2,r2,80
 5040730:	10c00035 	stwio	r3,0(r2)
		LCD_WR_DATA(0x0045);       //3F
 5040734:	00c01144 	movi	r3,69
 5040738:	00810034 	movhi	r2,1024
 504073c:	10801504 	addi	r2,r2,84
 5040740:	10c00035 	stwio	r3,0(r2)
		LCD_WR_DATA(0x0045);       //3C
 5040744:	00c01144 	movi	r3,69
 5040748:	00810034 	movhi	r2,1024
 504074c:	10801504 	addi	r2,r2,84
 5040750:	10c00035 	stwio	r3,0(r2)

	 LCD_WR_REG(0x00C7);    //VCM control2
 5040754:	00c031c4 	movi	r3,199
 5040758:	00810034 	movhi	r2,1024
 504075c:	10801404 	addi	r2,r2,80
 5040760:	10c00035 	stwio	r3,0(r2)
		 LCD_WR_DATA(0X00a2);
 5040764:	00c02884 	movi	r3,162
 5040768:	00810034 	movhi	r2,1024
 504076c:	10801504 	addi	r2,r2,84
 5040770:	10c00035 	stwio	r3,0(r2)

	LCD_WR_REG(0x0036);    // Memory Access Control
 5040774:	00c00d84 	movi	r3,54
 5040778:	00810034 	movhi	r2,1024
 504077c:	10801404 	addi	r2,r2,80
 5040780:	10c00035 	stwio	r3,0(r2)
		LCD_WR_DATA(0x0008);//48
 5040784:	00c00204 	movi	r3,8
 5040788:	00810034 	movhi	r2,1024
 504078c:	10801504 	addi	r2,r2,84
 5040790:	10c00035 	stwio	r3,0(r2)

	LCD_WR_REG(0x00F2);    // 3Gamma Function Disable
 5040794:	00c03c84 	movi	r3,242
 5040798:	00810034 	movhi	r2,1024
 504079c:	10801404 	addi	r2,r2,80
 50407a0:	10c00035 	stwio	r3,0(r2)
		LCD_WR_DATA(0x0000);
 50407a4:	0007883a 	mov	r3,zero
 50407a8:	00810034 	movhi	r2,1024
 50407ac:	10801504 	addi	r2,r2,84
 50407b0:	10c00035 	stwio	r3,0(r2)

	LCD_WR_REG(0x0026);    //Gamma curve selected
 50407b4:	00c00984 	movi	r3,38
 50407b8:	00810034 	movhi	r2,1024
 50407bc:	10801404 	addi	r2,r2,80
 50407c0:	10c00035 	stwio	r3,0(r2)
		LCD_WR_DATA(0x0001);
 50407c4:	00c00044 	movi	r3,1
 50407c8:	00810034 	movhi	r2,1024
 50407cc:	10801504 	addi	r2,r2,84
 50407d0:	10c00035 	stwio	r3,0(r2)

	LCD_WR_REG(0x00E0);    //Set Gamma
 50407d4:	00c03804 	movi	r3,224
 50407d8:	00810034 	movhi	r2,1024
 50407dc:	10801404 	addi	r2,r2,80
 50407e0:	10c00035 	stwio	r3,0(r2)
		LCD_WR_DATA(0x000F);
 50407e4:	00c003c4 	movi	r3,15
 50407e8:	00810034 	movhi	r2,1024
 50407ec:	10801504 	addi	r2,r2,84
 50407f0:	10c00035 	stwio	r3,0(r2)
		LCD_WR_DATA(0x0026);
 50407f4:	00c00984 	movi	r3,38
 50407f8:	00810034 	movhi	r2,1024
 50407fc:	10801504 	addi	r2,r2,84
 5040800:	10c00035 	stwio	r3,0(r2)
		LCD_WR_DATA(0x0024);
 5040804:	00c00904 	movi	r3,36
 5040808:	00810034 	movhi	r2,1024
 504080c:	10801504 	addi	r2,r2,84
 5040810:	10c00035 	stwio	r3,0(r2)
		LCD_WR_DATA(0x000b);
 5040814:	00c002c4 	movi	r3,11
 5040818:	00810034 	movhi	r2,1024
 504081c:	10801504 	addi	r2,r2,84
 5040820:	10c00035 	stwio	r3,0(r2)
		LCD_WR_DATA(0x000E);
 5040824:	00c00384 	movi	r3,14
 5040828:	00810034 	movhi	r2,1024
 504082c:	10801504 	addi	r2,r2,84
 5040830:	10c00035 	stwio	r3,0(r2)
		LCD_WR_DATA(0x0008);
 5040834:	00c00204 	movi	r3,8
 5040838:	00810034 	movhi	r2,1024
 504083c:	10801504 	addi	r2,r2,84
 5040840:	10c00035 	stwio	r3,0(r2)
		LCD_WR_DATA(0x004b);
 5040844:	00c012c4 	movi	r3,75
 5040848:	00810034 	movhi	r2,1024
 504084c:	10801504 	addi	r2,r2,84
 5040850:	10c00035 	stwio	r3,0(r2)
		LCD_WR_DATA(0X00a8);
 5040854:	00c02a04 	movi	r3,168
 5040858:	00810034 	movhi	r2,1024
 504085c:	10801504 	addi	r2,r2,84
 5040860:	10c00035 	stwio	r3,0(r2)
		LCD_WR_DATA(0x003b);
 5040864:	00c00ec4 	movi	r3,59
 5040868:	00810034 	movhi	r2,1024
 504086c:	10801504 	addi	r2,r2,84
 5040870:	10c00035 	stwio	r3,0(r2)
		LCD_WR_DATA(0x000a);
 5040874:	00c00284 	movi	r3,10
 5040878:	00810034 	movhi	r2,1024
 504087c:	10801504 	addi	r2,r2,84
 5040880:	10c00035 	stwio	r3,0(r2)
		LCD_WR_DATA(0x0014);
 5040884:	00c00504 	movi	r3,20
 5040888:	00810034 	movhi	r2,1024
 504088c:	10801504 	addi	r2,r2,84
 5040890:	10c00035 	stwio	r3,0(r2)
		LCD_WR_DATA(0x0006);
 5040894:	00c00184 	movi	r3,6
 5040898:	00810034 	movhi	r2,1024
 504089c:	10801504 	addi	r2,r2,84
 50408a0:	10c00035 	stwio	r3,0(r2)
		LCD_WR_DATA(0x0010);
 50408a4:	00c00404 	movi	r3,16
 50408a8:	00810034 	movhi	r2,1024
 50408ac:	10801504 	addi	r2,r2,84
 50408b0:	10c00035 	stwio	r3,0(r2)
		LCD_WR_DATA(0x0009);
 50408b4:	00c00244 	movi	r3,9
 50408b8:	00810034 	movhi	r2,1024
 50408bc:	10801504 	addi	r2,r2,84
 50408c0:	10c00035 	stwio	r3,0(r2)
		LCD_WR_DATA(0x0000);
 50408c4:	0007883a 	mov	r3,zero
 50408c8:	00810034 	movhi	r2,1024
 50408cc:	10801504 	addi	r2,r2,84
 50408d0:	10c00035 	stwio	r3,0(r2)

	LCD_WR_REG(0X00E1);    //Set Gamma
 50408d4:	00c03844 	movi	r3,225
 50408d8:	00810034 	movhi	r2,1024
 50408dc:	10801404 	addi	r2,r2,80
 50408e0:	10c00035 	stwio	r3,0(r2)
		LCD_WR_DATA(0x0000);
 50408e4:	0007883a 	mov	r3,zero
 50408e8:	00810034 	movhi	r2,1024
 50408ec:	10801504 	addi	r2,r2,84
 50408f0:	10c00035 	stwio	r3,0(r2)
		LCD_WR_DATA(0x001c);
 50408f4:	00c00704 	movi	r3,28
 50408f8:	00810034 	movhi	r2,1024
 50408fc:	10801504 	addi	r2,r2,84
 5040900:	10c00035 	stwio	r3,0(r2)
		LCD_WR_DATA(0x0020);
 5040904:	00c00804 	movi	r3,32
 5040908:	00810034 	movhi	r2,1024
 504090c:	10801504 	addi	r2,r2,84
 5040910:	10c00035 	stwio	r3,0(r2)
		LCD_WR_DATA(0x0004);
 5040914:	00c00104 	movi	r3,4
 5040918:	00810034 	movhi	r2,1024
 504091c:	10801504 	addi	r2,r2,84
 5040920:	10c00035 	stwio	r3,0(r2)
		LCD_WR_DATA(0x0010);
 5040924:	00c00404 	movi	r3,16
 5040928:	00810034 	movhi	r2,1024
 504092c:	10801504 	addi	r2,r2,84
 5040930:	10c00035 	stwio	r3,0(r2)
		LCD_WR_DATA(0x0008);
 5040934:	00c00204 	movi	r3,8
 5040938:	00810034 	movhi	r2,1024
 504093c:	10801504 	addi	r2,r2,84
 5040940:	10c00035 	stwio	r3,0(r2)
		LCD_WR_DATA(0x0034);
 5040944:	00c00d04 	movi	r3,52
 5040948:	00810034 	movhi	r2,1024
 504094c:	10801504 	addi	r2,r2,84
 5040950:	10c00035 	stwio	r3,0(r2)
		LCD_WR_DATA(0x0047);
 5040954:	00c011c4 	movi	r3,71
 5040958:	00810034 	movhi	r2,1024
 504095c:	10801504 	addi	r2,r2,84
 5040960:	10c00035 	stwio	r3,0(r2)
		LCD_WR_DATA(0x0044);
 5040964:	00c01104 	movi	r3,68
 5040968:	00810034 	movhi	r2,1024
 504096c:	10801504 	addi	r2,r2,84
 5040970:	10c00035 	stwio	r3,0(r2)
		LCD_WR_DATA(0x0005);
 5040974:	00c00144 	movi	r3,5
 5040978:	00810034 	movhi	r2,1024
 504097c:	10801504 	addi	r2,r2,84
 5040980:	10c00035 	stwio	r3,0(r2)
		LCD_WR_DATA(0x000b);
 5040984:	00c002c4 	movi	r3,11
 5040988:	00810034 	movhi	r2,1024
 504098c:	10801504 	addi	r2,r2,84
 5040990:	10c00035 	stwio	r3,0(r2)
		LCD_WR_DATA(0x0009);
 5040994:	00c00244 	movi	r3,9
 5040998:	00810034 	movhi	r2,1024
 504099c:	10801504 	addi	r2,r2,84
 50409a0:	10c00035 	stwio	r3,0(r2)
		LCD_WR_DATA(0x002f);
 50409a4:	00c00bc4 	movi	r3,47
 50409a8:	00810034 	movhi	r2,1024
 50409ac:	10801504 	addi	r2,r2,84
 50409b0:	10c00035 	stwio	r3,0(r2)
		LCD_WR_DATA(0x0036);
 50409b4:	00c00d84 	movi	r3,54
 50409b8:	00810034 	movhi	r2,1024
 50409bc:	10801504 	addi	r2,r2,84
 50409c0:	10c00035 	stwio	r3,0(r2)
		LCD_WR_DATA(0x000f);
 50409c4:	00c003c4 	movi	r3,15
 50409c8:	00810034 	movhi	r2,1024
 50409cc:	10801504 	addi	r2,r2,84
 50409d0:	10c00035 	stwio	r3,0(r2)

	LCD_WR_REG(0x002A);
 50409d4:	00c00a84 	movi	r3,42
 50409d8:	00810034 	movhi	r2,1024
 50409dc:	10801404 	addi	r2,r2,80
 50409e0:	10c00035 	stwio	r3,0(r2)
		LCD_WR_DATA(0x0000);
 50409e4:	0007883a 	mov	r3,zero
 50409e8:	00810034 	movhi	r2,1024
 50409ec:	10801504 	addi	r2,r2,84
 50409f0:	10c00035 	stwio	r3,0(r2)
		LCD_WR_DATA(0x0000);
 50409f4:	0007883a 	mov	r3,zero
 50409f8:	00810034 	movhi	r2,1024
 50409fc:	10801504 	addi	r2,r2,84
 5040a00:	10c00035 	stwio	r3,0(r2)
		LCD_WR_DATA(0x0000);
 5040a04:	0007883a 	mov	r3,zero
 5040a08:	00810034 	movhi	r2,1024
 5040a0c:	10801504 	addi	r2,r2,84
 5040a10:	10c00035 	stwio	r3,0(r2)
		LCD_WR_DATA(0x00ef);
 5040a14:	00c03bc4 	movi	r3,239
 5040a18:	00810034 	movhi	r2,1024
 5040a1c:	10801504 	addi	r2,r2,84
 5040a20:	10c00035 	stwio	r3,0(r2)

	 LCD_WR_REG(0x002B);
 5040a24:	00c00ac4 	movi	r3,43
 5040a28:	00810034 	movhi	r2,1024
 5040a2c:	10801404 	addi	r2,r2,80
 5040a30:	10c00035 	stwio	r3,0(r2)
		LCD_WR_DATA(0x0000);
 5040a34:	0007883a 	mov	r3,zero
 5040a38:	00810034 	movhi	r2,1024
 5040a3c:	10801504 	addi	r2,r2,84
 5040a40:	10c00035 	stwio	r3,0(r2)
		LCD_WR_DATA(0x0000);
 5040a44:	0007883a 	mov	r3,zero
 5040a48:	00810034 	movhi	r2,1024
 5040a4c:	10801504 	addi	r2,r2,84
 5040a50:	10c00035 	stwio	r3,0(r2)
		LCD_WR_DATA(0x0001);
 5040a54:	00c00044 	movi	r3,1
 5040a58:	00810034 	movhi	r2,1024
 5040a5c:	10801504 	addi	r2,r2,84
 5040a60:	10c00035 	stwio	r3,0(r2)
		LCD_WR_DATA(0x003f);
 5040a64:	00c00fc4 	movi	r3,63
 5040a68:	00810034 	movhi	r2,1024
 5040a6c:	10801504 	addi	r2,r2,84
 5040a70:	10c00035 	stwio	r3,0(r2)

	LCD_WR_REG(0x003A);
 5040a74:	00c00e84 	movi	r3,58
 5040a78:	00810034 	movhi	r2,1024
 5040a7c:	10801404 	addi	r2,r2,80
 5040a80:	10c00035 	stwio	r3,0(r2)
		LCD_WR_DATA(0x0055);
 5040a84:	00c01544 	movi	r3,85
 5040a88:	00810034 	movhi	r2,1024
 5040a8c:	10801504 	addi	r2,r2,84
 5040a90:	10c00035 	stwio	r3,0(r2)

	LCD_WR_REG(0x00f6);
 5040a94:	00c03d84 	movi	r3,246
 5040a98:	00810034 	movhi	r2,1024
 5040a9c:	10801404 	addi	r2,r2,80
 5040aa0:	10c00035 	stwio	r3,0(r2)
		LCD_WR_DATA(0x0001);
 5040aa4:	00c00044 	movi	r3,1
 5040aa8:	00810034 	movhi	r2,1024
 5040aac:	10801504 	addi	r2,r2,84
 5040ab0:	10c00035 	stwio	r3,0(r2)
		LCD_WR_DATA(0x0030);
 5040ab4:	00c00c04 	movi	r3,48
 5040ab8:	00810034 	movhi	r2,1024
 5040abc:	10801504 	addi	r2,r2,84
 5040ac0:	10c00035 	stwio	r3,0(r2)
		LCD_WR_DATA(0x0000);
 5040ac4:	0007883a 	mov	r3,zero
 5040ac8:	00810034 	movhi	r2,1024
 5040acc:	10801504 	addi	r2,r2,84
 5040ad0:	10c00035 	stwio	r3,0(r2)

	LCD_WR_REG(0x0029); //display on
 5040ad4:	00c00a44 	movi	r3,41
 5040ad8:	00810034 	movhi	r2,1024
 5040adc:	10801404 	addi	r2,r2,80
 5040ae0:	10c00035 	stwio	r3,0(r2)

	LCD_WR_REG(0x002c);    // 0x2C
 5040ae4:	00c00b04 	movi	r3,44
 5040ae8:	00810034 	movhi	r2,1024
 5040aec:	10801404 	addi	r2,r2,80
 5040af0:	10c00035 	stwio	r3,0(r2)

}
 5040af4:	0001883a 	nop
 5040af8:	e037883a 	mov	sp,fp
 5040afc:	dfc00117 	ldw	ra,4(sp)
 5040b00:	df000017 	ldw	fp,0(sp)
 5040b04:	dec00204 	addi	sp,sp,8
 5040b08:	f800283a 	ret

05040b0c <LCD_Pattern_Horizon>:


void LCD_Pattern_Horizon(void)
{
 5040b0c:	defffc04 	addi	sp,sp,-16
 5040b10:	dfc00315 	stw	ra,12(sp)
 5040b14:	df000215 	stw	fp,8(sp)
 5040b18:	df000204 	addi	fp,sp,8
        alt_u32 index=0;
 5040b1c:	e03ffe15 	stw	zero,-8(fp)
        alt_u16  data=0;
 5040b20:	e03fff0d 	sth	zero,-4(fp)
        LCD_SetCursor(0x00,0x0000);
 5040b24:	000b883a 	mov	r5,zero
 5040b28:	0009883a 	mov	r4,zero
 5040b2c:	50402e40 	call	50402e4 <LCD_SetCursor>
        data=0x0000;
 5040b30:	e03fff0d 	sth	zero,-4(fp)
        for(index=0;index<240*80;index++)
 5040b34:	e03ffe15 	stw	zero,-8(fp)
 5040b38:	00000706 	br	5040b58 <LCD_Pattern_Horizon+0x4c>
        {
        	LCD_WR_DATA(data);
 5040b3c:	e0ffff0b 	ldhu	r3,-4(fp)
 5040b40:	00810034 	movhi	r2,1024
 5040b44:	10801504 	addi	r2,r2,84
 5040b48:	10c00035 	stwio	r3,0(r2)
{
        alt_u32 index=0;
        alt_u16  data=0;
        LCD_SetCursor(0x00,0x0000);
        data=0x0000;
        for(index=0;index<240*80;index++)
 5040b4c:	e0bffe17 	ldw	r2,-8(fp)
 5040b50:	10800044 	addi	r2,r2,1
 5040b54:	e0bffe15 	stw	r2,-8(fp)
 5040b58:	e0bffe17 	ldw	r2,-8(fp)
 5040b5c:	1092c030 	cmpltui	r2,r2,19200
 5040b60:	103ff61e 	bne	r2,zero,5040b3c <_gp+0xfffd53c4>
        {
        	LCD_WR_DATA(data);
        }
        LCD_SetCursor(0x00,80);
 5040b64:	01401404 	movi	r5,80
 5040b68:	0009883a 	mov	r4,zero
 5040b6c:	50402e40 	call	50402e4 <LCD_SetCursor>
        data=RED;
 5040b70:	00be0004 	movi	r2,-2048
 5040b74:	e0bfff0d 	sth	r2,-4(fp)
		for(index=0;index<240*80;index++)
 5040b78:	e03ffe15 	stw	zero,-8(fp)
 5040b7c:	00000706 	br	5040b9c <LCD_Pattern_Horizon+0x90>
		{
			LCD_WR_DATA(data);
 5040b80:	e0ffff0b 	ldhu	r3,-4(fp)
 5040b84:	00810034 	movhi	r2,1024
 5040b88:	10801504 	addi	r2,r2,84
 5040b8c:	10c00035 	stwio	r3,0(r2)
        {
        	LCD_WR_DATA(data);
        }
        LCD_SetCursor(0x00,80);
        data=RED;
		for(index=0;index<240*80;index++)
 5040b90:	e0bffe17 	ldw	r2,-8(fp)
 5040b94:	10800044 	addi	r2,r2,1
 5040b98:	e0bffe15 	stw	r2,-8(fp)
 5040b9c:	e0bffe17 	ldw	r2,-8(fp)
 5040ba0:	1092c030 	cmpltui	r2,r2,19200
 5040ba4:	103ff61e 	bne	r2,zero,5040b80 <_gp+0xfffd5408>
		{
			LCD_WR_DATA(data);
		}
	    LCD_SetCursor(0x00,160);
 5040ba8:	01402804 	movi	r5,160
 5040bac:	0009883a 	mov	r4,zero
 5040bb0:	50402e40 	call	50402e4 <LCD_SetCursor>
		data=GREEN;
 5040bb4:	0081f804 	movi	r2,2016
 5040bb8:	e0bfff0d 	sth	r2,-4(fp)
		for(index=0;index<240*80;index++)
 5040bbc:	e03ffe15 	stw	zero,-8(fp)
 5040bc0:	00000706 	br	5040be0 <LCD_Pattern_Horizon+0xd4>
		{
			LCD_WR_DATA(data);
 5040bc4:	e0ffff0b 	ldhu	r3,-4(fp)
 5040bc8:	00810034 	movhi	r2,1024
 5040bcc:	10801504 	addi	r2,r2,84
 5040bd0:	10c00035 	stwio	r3,0(r2)
		{
			LCD_WR_DATA(data);
		}
	    LCD_SetCursor(0x00,160);
		data=GREEN;
		for(index=0;index<240*80;index++)
 5040bd4:	e0bffe17 	ldw	r2,-8(fp)
 5040bd8:	10800044 	addi	r2,r2,1
 5040bdc:	e0bffe15 	stw	r2,-8(fp)
 5040be0:	e0bffe17 	ldw	r2,-8(fp)
 5040be4:	1092c030 	cmpltui	r2,r2,19200
 5040be8:	103ff61e 	bne	r2,zero,5040bc4 <_gp+0xfffd544c>
		{
			LCD_WR_DATA(data);
		}
		LCD_SetCursor(0x00,240);
 5040bec:	01403c04 	movi	r5,240
 5040bf0:	0009883a 	mov	r4,zero
 5040bf4:	50402e40 	call	50402e4 <LCD_SetCursor>
		data=BLUE;
 5040bf8:	008007c4 	movi	r2,31
 5040bfc:	e0bfff0d 	sth	r2,-4(fp)
		for(index=0;index<240*80;index++)
 5040c00:	e03ffe15 	stw	zero,-8(fp)
 5040c04:	00000706 	br	5040c24 <LCD_Pattern_Horizon+0x118>
		{
			LCD_WR_DATA(data);
 5040c08:	e0ffff0b 	ldhu	r3,-4(fp)
 5040c0c:	00810034 	movhi	r2,1024
 5040c10:	10801504 	addi	r2,r2,84
 5040c14:	10c00035 	stwio	r3,0(r2)
		{
			LCD_WR_DATA(data);
		}
		LCD_SetCursor(0x00,240);
		data=BLUE;
		for(index=0;index<240*80;index++)
 5040c18:	e0bffe17 	ldw	r2,-8(fp)
 5040c1c:	10800044 	addi	r2,r2,1
 5040c20:	e0bffe15 	stw	r2,-8(fp)
 5040c24:	e0bffe17 	ldw	r2,-8(fp)
 5040c28:	1092c030 	cmpltui	r2,r2,19200
 5040c2c:	103ff61e 	bne	r2,zero,5040c08 <_gp+0xfffd5490>
		{
			LCD_WR_DATA(data);
		}
}
 5040c30:	0001883a 	nop
 5040c34:	e037883a 	mov	sp,fp
 5040c38:	dfc00117 	ldw	ra,4(sp)
 5040c3c:	df000017 	ldw	fp,0(sp)
 5040c40:	dec00204 	addi	sp,sp,8
 5040c44:	f800283a 	ret

05040c48 <LCD_Pattern_Vertical>:

void LCD_Pattern_Vertical(void)
{
 5040c48:	defff804 	addi	sp,sp,-32
 5040c4c:	dfc00715 	stw	ra,28(sp)
 5040c50:	df000615 	stw	fp,24(sp)
 5040c54:	df000604 	addi	fp,sp,24
        int i,j,m;
        alt_u16  data=0;
 5040c58:	e03ffd0d 	sth	zero,-12(fp)
        alt_u16  color[4]={WHITE,BLUE,GREEN,RED};
 5040c5c:	00bfffc4 	movi	r2,-1
 5040c60:	e0bffd8d 	sth	r2,-10(fp)
 5040c64:	008007c4 	movi	r2,31
 5040c68:	e0bffe0d 	sth	r2,-8(fp)
 5040c6c:	0081f804 	movi	r2,2016
 5040c70:	e0bffe8d 	sth	r2,-6(fp)
 5040c74:	00be0004 	movi	r2,-2048
 5040c78:	e0bfff0d 	sth	r2,-4(fp)
        LCD_SetCursor(0x00,0x0000);
 5040c7c:	000b883a 	mov	r5,zero
 5040c80:	0009883a 	mov	r4,zero
 5040c84:	50402e40 	call	50402e4 <LCD_SetCursor>
        for(m=0;m<320;m++)
 5040c88:	e03ffc15 	stw	zero,-16(fp)
 5040c8c:	00001e06 	br	5040d08 <LCD_Pattern_Vertical+0xc0>
        {
			for(i=0;i<4;i++)
 5040c90:	e03ffa15 	stw	zero,-24(fp)
 5040c94:	00001606 	br	5040cf0 <LCD_Pattern_Vertical+0xa8>
			{
				data=color[i];
 5040c98:	e0bffa17 	ldw	r2,-24(fp)
 5040c9c:	1085883a 	add	r2,r2,r2
 5040ca0:	e0fffa04 	addi	r3,fp,-24
 5040ca4:	1885883a 	add	r2,r3,r2
 5040ca8:	10800384 	addi	r2,r2,14
 5040cac:	1080000b 	ldhu	r2,0(r2)
 5040cb0:	e0bffd0d 	sth	r2,-12(fp)
				for(j=0;j<60;j++)
 5040cb4:	e03ffb15 	stw	zero,-20(fp)
 5040cb8:	00000706 	br	5040cd8 <LCD_Pattern_Vertical+0x90>
				{
					LCD_WR_DATA(data);
 5040cbc:	e0fffd0b 	ldhu	r3,-12(fp)
 5040cc0:	00810034 	movhi	r2,1024
 5040cc4:	10801504 	addi	r2,r2,84
 5040cc8:	10c00035 	stwio	r3,0(r2)
        for(m=0;m<320;m++)
        {
			for(i=0;i<4;i++)
			{
				data=color[i];
				for(j=0;j<60;j++)
 5040ccc:	e0bffb17 	ldw	r2,-20(fp)
 5040cd0:	10800044 	addi	r2,r2,1
 5040cd4:	e0bffb15 	stw	r2,-20(fp)
 5040cd8:	e0bffb17 	ldw	r2,-20(fp)
 5040cdc:	10800f10 	cmplti	r2,r2,60
 5040ce0:	103ff61e 	bne	r2,zero,5040cbc <_gp+0xfffd5544>
        alt_u16  data=0;
        alt_u16  color[4]={WHITE,BLUE,GREEN,RED};
        LCD_SetCursor(0x00,0x0000);
        for(m=0;m<320;m++)
        {
			for(i=0;i<4;i++)
 5040ce4:	e0bffa17 	ldw	r2,-24(fp)
 5040ce8:	10800044 	addi	r2,r2,1
 5040cec:	e0bffa15 	stw	r2,-24(fp)
 5040cf0:	e0bffa17 	ldw	r2,-24(fp)
 5040cf4:	10800110 	cmplti	r2,r2,4
 5040cf8:	103fe71e 	bne	r2,zero,5040c98 <_gp+0xfffd5520>
{
        int i,j,m;
        alt_u16  data=0;
        alt_u16  color[4]={WHITE,BLUE,GREEN,RED};
        LCD_SetCursor(0x00,0x0000);
        for(m=0;m<320;m++)
 5040cfc:	e0bffc17 	ldw	r2,-16(fp)
 5040d00:	10800044 	addi	r2,r2,1
 5040d04:	e0bffc15 	stw	r2,-16(fp)
 5040d08:	e0bffc17 	ldw	r2,-16(fp)
 5040d0c:	10805010 	cmplti	r2,r2,320
 5040d10:	103fdf1e 	bne	r2,zero,5040c90 <_gp+0xfffd5518>
				{
					LCD_WR_DATA(data);
				}
			}
        }
}
 5040d14:	0001883a 	nop
 5040d18:	e037883a 	mov	sp,fp
 5040d1c:	dfc00117 	ldw	ra,4(sp)
 5040d20:	df000017 	ldw	fp,0(sp)
 5040d24:	dec00204 	addi	sp,sp,8
 5040d28:	f800283a 	ret

05040d2c <debug_output>:
    UART_WriteString(pMessage);  // UART debug
}

#else

void debug_output(char *pMessage){
 5040d2c:	defffd04 	addi	sp,sp,-12
 5040d30:	dfc00215 	stw	ra,8(sp)
 5040d34:	df000115 	stw	fp,4(sp)
 5040d38:	df000104 	addi	fp,sp,4
 5040d3c:	e13fff15 	stw	r4,-4(fp)
    
    printf(pMessage);
 5040d40:	e13fff17 	ldw	r4,-4(fp)
 5040d44:	504fe340 	call	504fe34 <printf>
}
 5040d48:	0001883a 	nop
 5040d4c:	e037883a 	mov	sp,fp
 5040d50:	dfc00117 	ldw	ra,4(sp)
 5040d54:	df000017 	ldw	fp,0(sp)
 5040d58:	dec00204 	addi	sp,sp,8
 5040d5c:	f800283a 	ret

05040d60 <myprintf>:





int myprintf(char *format, ...){
 5040d60:	deff7804 	addi	sp,sp,-544
 5040d64:	dfc08415 	stw	ra,528(sp)
 5040d68:	df008315 	stw	fp,524(sp)
 5040d6c:	df008304 	addi	fp,sp,524
 5040d70:	e13fff15 	stw	r4,-4(fp)
 5040d74:	e1400215 	stw	r5,8(fp)
 5040d78:	e1800315 	stw	r6,12(fp)
 5040d7c:	e1c00415 	stw	r7,16(fp)
    int rc;
    char szText[512];
    
    va_list paramList;
    va_start(paramList, format);
 5040d80:	e0800204 	addi	r2,fp,8
 5040d84:	e0bffe15 	stw	r2,-8(fp)
    rc = vsnprintf(szText, 512, format, paramList);
 5040d88:	e0fffe17 	ldw	r3,-8(fp)
 5040d8c:	e0bf7e04 	addi	r2,fp,-520
 5040d90:	180f883a 	mov	r7,r3
 5040d94:	e1bfff17 	ldw	r6,-4(fp)
 5040d98:	01408004 	movi	r5,512
 5040d9c:	1009883a 	mov	r4,r2
 5040da0:	505471c0 	call	505471c <vsnprintf>
 5040da4:	e0bf7d15 	stw	r2,-524(fp)
    va_end(paramList);
    
    debug_output(szText);
 5040da8:	e0bf7e04 	addi	r2,fp,-520
 5040dac:	1009883a 	mov	r4,r2
 5040db0:	5040d2c0 	call	5040d2c <debug_output>

    return rc;    
 5040db4:	e0bf7d17 	ldw	r2,-524(fp)
}
 5040db8:	e037883a 	mov	sp,fp
 5040dbc:	dfc00117 	ldw	ra,4(sp)
 5040dc0:	df000017 	ldw	fp,0(sp)
 5040dc4:	dec00504 	addi	sp,sp,20
 5040dc8:	f800283a 	ret

05040dcc <myprintf_hexarray>:


int myprintf_hexarray(unsigned char *pHex, int len){
 5040dcc:	defff704 	addi	sp,sp,-36
 5040dd0:	dfc00815 	stw	ra,32(sp)
 5040dd4:	df000715 	stw	fp,28(sp)
 5040dd8:	df000704 	addi	fp,sp,28
 5040ddc:	e13ffe15 	stw	r4,-8(fp)
 5040de0:	e17fff15 	stw	r5,-4(fp)
    int i;
    unsigned char szText[16];
    for(i=0;i<len;i++){
 5040de4:	e03ff915 	stw	zero,-28(fp)
 5040de8:	00001106 	br	5040e30 <myprintf_hexarray+0x64>
        sprintf(szText, "[%02X]", *(pHex+i));
 5040dec:	e0bff917 	ldw	r2,-28(fp)
 5040df0:	e0fffe17 	ldw	r3,-8(fp)
 5040df4:	1885883a 	add	r2,r3,r2
 5040df8:	10800003 	ldbu	r2,0(r2)
 5040dfc:	10c03fcc 	andi	r3,r2,255
 5040e00:	e0bffa04 	addi	r2,fp,-24
 5040e04:	180d883a 	mov	r6,r3
 5040e08:	014141b4 	movhi	r5,1286
 5040e0c:	2943bc04 	addi	r5,r5,3824
 5040e10:	1009883a 	mov	r4,r2
 5040e14:	504fff00 	call	504fff0 <sprintf>
        DEBUG((szText));
 5040e18:	e0bffa04 	addi	r2,fp,-24
 5040e1c:	1009883a 	mov	r4,r2
 5040e20:	5040d600 	call	5040d60 <myprintf>


int myprintf_hexarray(unsigned char *pHex, int len){
    int i;
    unsigned char szText[16];
    for(i=0;i<len;i++){
 5040e24:	e0bff917 	ldw	r2,-28(fp)
 5040e28:	10800044 	addi	r2,r2,1
 5040e2c:	e0bff915 	stw	r2,-28(fp)
 5040e30:	e0fff917 	ldw	r3,-28(fp)
 5040e34:	e0bfff17 	ldw	r2,-4(fp)
 5040e38:	18bfec16 	blt	r3,r2,5040dec <_gp+0xfffd5674>
        sprintf(szText, "[%02X]", *(pHex+i));
        DEBUG((szText));
    }
    return len;
 5040e3c:	e0bfff17 	ldw	r2,-4(fp)
}
 5040e40:	e037883a 	mov	sp,fp
 5040e44:	dfc00117 	ldw	ra,4(sp)
 5040e48:	df000017 	ldw	fp,0(sp)
 5040e4c:	dec00204 	addi	sp,sp,8
 5040e50:	f800283a 	ret

05040e54 <myprintf_dwordarray>:

int  myprintf_dwordarray(unsigned int *pArray, int nElementCount){
 5040e54:	defff704 	addi	sp,sp,-36
 5040e58:	dfc00815 	stw	ra,32(sp)
 5040e5c:	df000715 	stw	fp,28(sp)
 5040e60:	df000704 	addi	fp,sp,28
 5040e64:	e13ffe15 	stw	r4,-8(fp)
 5040e68:	e17fff15 	stw	r5,-4(fp)
    int i;
    char szText[16];
    for(i=0;i<nElementCount;i++){
 5040e6c:	e03ff915 	stw	zero,-28(fp)
 5040e70:	00001306 	br	5040ec0 <myprintf_dwordarray+0x6c>
        sprintf(szText, "[%08X]", *(pArray+i));
 5040e74:	e0bff917 	ldw	r2,-28(fp)
 5040e78:	1085883a 	add	r2,r2,r2
 5040e7c:	1085883a 	add	r2,r2,r2
 5040e80:	1007883a 	mov	r3,r2
 5040e84:	e0bffe17 	ldw	r2,-8(fp)
 5040e88:	10c5883a 	add	r2,r2,r3
 5040e8c:	10c00017 	ldw	r3,0(r2)
 5040e90:	e0bffa04 	addi	r2,fp,-24
 5040e94:	180d883a 	mov	r6,r3
 5040e98:	014141b4 	movhi	r5,1286
 5040e9c:	2943be04 	addi	r5,r5,3832
 5040ea0:	1009883a 	mov	r4,r2
 5040ea4:	504fff00 	call	504fff0 <sprintf>
        DEBUG((szText));
 5040ea8:	e0bffa04 	addi	r2,fp,-24
 5040eac:	1009883a 	mov	r4,r2
 5040eb0:	5040d600 	call	5040d60 <myprintf>
}

int  myprintf_dwordarray(unsigned int *pArray, int nElementCount){
    int i;
    char szText[16];
    for(i=0;i<nElementCount;i++){
 5040eb4:	e0bff917 	ldw	r2,-28(fp)
 5040eb8:	10800044 	addi	r2,r2,1
 5040ebc:	e0bff915 	stw	r2,-28(fp)
 5040ec0:	e0fff917 	ldw	r3,-28(fp)
 5040ec4:	e0bfff17 	ldw	r2,-4(fp)
 5040ec8:	18bfea16 	blt	r3,r2,5040e74 <_gp+0xfffd56fc>
        sprintf(szText, "[%08X]", *(pArray+i));
        DEBUG((szText));
    }
    return nElementCount;
 5040ecc:	e0bfff17 	ldw	r2,-4(fp)
}
 5040ed0:	e037883a 	mov	sp,fp
 5040ed4:	dfc00117 	ldw	ra,4(sp)
 5040ed8:	df000017 	ldw	fp,0(sp)
 5040edc:	dec00204 	addi	sp,sp,8
 5040ee0:	f800283a 	ret

05040ee4 <vid_clean_screen>:
#include "ILI9341.h"
#endif


// richard add
void vid_clean_screen(alt_video_display* display, int color){
 5040ee4:	defffa04 	addi	sp,sp,-24
 5040ee8:	dfc00515 	stw	ra,20(sp)
 5040eec:	df000415 	stw	fp,16(sp)
 5040ef0:	df000404 	addi	fp,sp,16
 5040ef4:	e13ffe15 	stw	r4,-8(fp)
 5040ef8:	e17fff15 	stw	r5,-4(fp)
    vid_paint_block(0 , 0,display->width, display->height, color, display);
 5040efc:	e0bffe17 	ldw	r2,-8(fp)
 5040f00:	10c00117 	ldw	r3,4(r2)
 5040f04:	e0bffe17 	ldw	r2,-8(fp)
 5040f08:	11000217 	ldw	r4,8(r2)
 5040f0c:	e0bffe17 	ldw	r2,-8(fp)
 5040f10:	d8800115 	stw	r2,4(sp)
 5040f14:	e0bfff17 	ldw	r2,-4(fp)
 5040f18:	d8800015 	stw	r2,0(sp)
 5040f1c:	200f883a 	mov	r7,r4
 5040f20:	180d883a 	mov	r6,r3
 5040f24:	000b883a 	mov	r5,zero
 5040f28:	0009883a 	mov	r4,zero
 5040f2c:	5041a540 	call	5041a54 <vid_paint_block>
}
 5040f30:	0001883a 	nop
 5040f34:	e037883a 	mov	sp,fp
 5040f38:	dfc00117 	ldw	ra,4(sp)
 5040f3c:	df000017 	ldw	fp,0(sp)
 5040f40:	dec00204 	addi	sp,sp,8
 5040f44:	f800283a 	ret

05040f48 <vid_draw_line>:
*           vid_draw_horiz_line(), which is much faster than 
*           vid_draw_sloped_line.
*
******************************************************************/
__inline__ void vid_draw_line(int horiz_start, int vert_start, int horiz_end, int vert_end, int width, int color, alt_video_display* display)
{
 5040f48:	defff704 	addi	sp,sp,-36
 5040f4c:	dfc00815 	stw	ra,32(sp)
 5040f50:	df000715 	stw	fp,28(sp)
 5040f54:	df000704 	addi	fp,sp,28
 5040f58:	e13ffc15 	stw	r4,-16(fp)
 5040f5c:	e17ffd15 	stw	r5,-12(fp)
 5040f60:	e1bffe15 	stw	r6,-8(fp)
 5040f64:	e1ffff15 	stw	r7,-4(fp)
 
  if( vert_start == vert_end )
 5040f68:	e0fffd17 	ldw	r3,-12(fp)
 5040f6c:	e0bfff17 	ldw	r2,-4(fp)
 5040f70:	1880121e 	bne	r3,r2,5040fbc <vid_draw_line+0x74>
//                         (unsigned short)horiz_end,  
//                         (unsigned short)vert_start,
//                         color,
//                         display->buffer_ptrs[display->buffer_being_written]->buffer);

    vid_draw_horiz_line( (unsigned short)horiz_start, 
 5040f74:	e0bffc17 	ldw	r2,-16(fp)
 5040f78:	10ffffcc 	andi	r3,r2,65535
 5040f7c:	18e0001c 	xori	r3,r3,32768
 5040f80:	18e00004 	addi	r3,r3,-32768
 5040f84:	e0bffe17 	ldw	r2,-8(fp)
 5040f88:	113fffcc 	andi	r4,r2,65535
 5040f8c:	2120001c 	xori	r4,r4,32768
 5040f90:	21200004 	addi	r4,r4,-32768
 5040f94:	e0bffd17 	ldw	r2,-12(fp)
 5040f98:	117fffcc 	andi	r5,r2,65535
 5040f9c:	e0800417 	ldw	r2,16(fp)
 5040fa0:	d8800015 	stw	r2,0(sp)
 5040fa4:	e1c00317 	ldw	r7,12(fp)
 5040fa8:	280d883a 	mov	r6,r5
 5040fac:	200b883a 	mov	r5,r4
 5040fb0:	1809883a 	mov	r4,r3
 5040fb4:	5041aec0 	call	5041aec <vid_draw_horiz_line>
                          (unsigned short)vert_end, 
                          (unsigned short)width, 
                          color,
                          display );
  }
}
 5040fb8:	00001006 	br	5040ffc <vid_draw_line+0xb4>
                         color,
                         display );
  }
  else
  {
    vid_draw_sloped_line( (unsigned short)horiz_start, 
 5040fbc:	e0bffc17 	ldw	r2,-16(fp)
 5040fc0:	113fffcc 	andi	r4,r2,65535
 5040fc4:	e0bffd17 	ldw	r2,-12(fp)
 5040fc8:	117fffcc 	andi	r5,r2,65535
 5040fcc:	e0bffe17 	ldw	r2,-8(fp)
 5040fd0:	11bfffcc 	andi	r6,r2,65535
 5040fd4:	e0bfff17 	ldw	r2,-4(fp)
 5040fd8:	11ffffcc 	andi	r7,r2,65535
 5040fdc:	e0800217 	ldw	r2,8(fp)
 5040fe0:	10bfffcc 	andi	r2,r2,65535
 5040fe4:	e0c00417 	ldw	r3,16(fp)
 5040fe8:	d8c00215 	stw	r3,8(sp)
 5040fec:	e0c00317 	ldw	r3,12(fp)
 5040ff0:	d8c00115 	stw	r3,4(sp)
 5040ff4:	d8800015 	stw	r2,0(sp)
 5040ff8:	5041d040 	call	5041d04 <vid_draw_sloped_line>
                          (unsigned short)vert_end, 
                          (unsigned short)width, 
                          color,
                          display );
  }
}
 5040ffc:	0001883a 	nop
 5041000:	e037883a 	mov	sp,fp
 5041004:	dfc00117 	ldw	ra,4(sp)
 5041008:	df000017 	ldw	fp,0(sp)
 504100c:	dec00204 	addi	sp,sp,8
 5041010:	f800283a 	ret

05041014 <vid_scroll_string_quit>:



void vid_scroll_string_quit(vid_text_scroll_struct* scroll)
{
 5041014:	defffd04 	addi	sp,sp,-12
 5041018:	dfc00215 	stw	ra,8(sp)
 504101c:	df000115 	stw	fp,4(sp)
 5041020:	df000104 	addi	fp,sp,4
 5041024:	e13fff15 	stw	r4,-4(fp)
  free(scroll->string);
 5041028:	e0bfff17 	ldw	r2,-4(fp)
 504102c:	10800517 	ldw	r2,20(r2)
 5041030:	1009883a 	mov	r4,r2
 5041034:	504f3740 	call	504f374 <free>
  free(scroll);
 5041038:	e13fff17 	ldw	r4,-4(fp)
 504103c:	504f3740 	call	504f374 <free>
}
 5041040:	0001883a 	nop
 5041044:	e037883a 	mov	sp,fp
 5041048:	dfc00117 	ldw	ra,4(sp)
 504104c:	df000017 	ldw	fp,0(sp)
 5041050:	dec00204 	addi	sp,sp,8
 5041054:	f800283a 	ret

05041058 <vid_scroll_string_init>:

vid_text_scroll_struct* vid_scroll_string_init(int hbegin, int vbegin, int hend, int f_color, int b_color, char* font, int ms_delay, char *string)
{
 5041058:	defff904 	addi	sp,sp,-28
 504105c:	dfc00615 	stw	ra,24(sp)
 5041060:	df000515 	stw	fp,20(sp)
 5041064:	df000504 	addi	fp,sp,20
 5041068:	e13ffc15 	stw	r4,-16(fp)
 504106c:	e17ffd15 	stw	r5,-12(fp)
 5041070:	e1bffe15 	stw	r6,-8(fp)
 5041074:	e1ffff15 	stw	r7,-4(fp)
  vid_text_scroll_struct* scroll;
  scroll = malloc(sizeof (vid_text_scroll_struct));
 5041078:	01000f04 	movi	r4,60
 504107c:	504f3600 	call	504f360 <malloc>
 5041080:	e0bffb15 	stw	r2,-20(fp)
  
  scroll->hbegin = hbegin;
 5041084:	e0bffb17 	ldw	r2,-20(fp)
 5041088:	e0fffc17 	ldw	r3,-16(fp)
 504108c:	10c00015 	stw	r3,0(r2)
  scroll->vbegin = vbegin;
 5041090:	e0bffb17 	ldw	r2,-20(fp)
 5041094:	e0fffd17 	ldw	r3,-12(fp)
 5041098:	10c00115 	stw	r3,4(r2)
  scroll->hend = hend;
 504109c:	e0bffb17 	ldw	r2,-20(fp)
 50410a0:	e0fffe17 	ldw	r3,-8(fp)
 50410a4:	10c00215 	stw	r3,8(r2)
  scroll->f_color = f_color;
 50410a8:	e0bffb17 	ldw	r2,-20(fp)
 50410ac:	e0ffff17 	ldw	r3,-4(fp)
 50410b0:	10c00315 	stw	r3,12(r2)
  scroll->b_color = b_color;
 50410b4:	e0bffb17 	ldw	r2,-20(fp)
 50410b8:	e0c00217 	ldw	r3,8(fp)
 50410bc:	10c00415 	stw	r3,16(r2)
  scroll->string = malloc(strlen(string)+2);
 50410c0:	e1000517 	ldw	r4,20(fp)
 50410c4:	50500ec0 	call	50500ec <strlen>
 50410c8:	10800084 	addi	r2,r2,2
 50410cc:	1009883a 	mov	r4,r2
 50410d0:	504f3600 	call	504f360 <malloc>
 50410d4:	1007883a 	mov	r3,r2
 50410d8:	e0bffb17 	ldw	r2,-20(fp)
 50410dc:	10c00515 	stw	r3,20(r2)
  strcpy(scroll->string, string);
 50410e0:	e0bffb17 	ldw	r2,-20(fp)
 50410e4:	10800517 	ldw	r2,20(r2)
 50410e8:	e1400517 	ldw	r5,20(fp)
 50410ec:	1009883a 	mov	r4,r2
 50410f0:	505005c0 	call	505005c <strcpy>
  scroll->font = font;
 50410f4:	e0bffb17 	ldw	r2,-20(fp)
 50410f8:	e0c00317 	ldw	r3,12(fp)
 50410fc:	10c00615 	stw	r3,24(r2)
  scroll->ms_delay = ms_delay;
 5041100:	e0bffb17 	ldw	r2,-20(fp)
 5041104:	e0c00417 	ldw	r3,16(fp)
 5041108:	10c00715 	stw	r3,28(r2)
 * alt_nticks() returns the elapsed number of system clock ticks since reset.
 */

static ALT_INLINE alt_u32 ALT_ALWAYS_INLINE alt_nticks (void)
{
  return _alt_nticks;
 504110c:	d0a81d17 	ldw	r2,-24460(gp)
  scroll->ticks_at_last_move = alt_nticks();
 5041110:	1007883a 	mov	r3,r2
 5041114:	e0bffb17 	ldw	r2,-20(fp)
 5041118:	10c00815 	stw	r3,32(r2)
  scroll->text_scroll_index = 0;
 504111c:	e0bffb17 	ldw	r2,-20(fp)
 5041120:	10000915 	stw	zero,36(r2)
  scroll->text_scroll_started = 0;
 5041124:	e0bffb17 	ldw	r2,-20(fp)
 5041128:	10000a05 	stb	zero,40(r2)
  scroll->window_width = scroll->hend - scroll->hbegin;
 504112c:	e0bffb17 	ldw	r2,-20(fp)
 5041130:	10c00217 	ldw	r3,8(r2)
 5041134:	e0bffb17 	ldw	r2,-20(fp)
 5041138:	10800017 	ldw	r2,0(r2)
 504113c:	1887c83a 	sub	r3,r3,r2
 5041140:	e0bffb17 	ldw	r2,-20(fp)
 5041144:	10c00b15 	stw	r3,44(r2)
  scroll->length_of_string = strlen(string);
 5041148:	e1000517 	ldw	r4,20(fp)
 504114c:	50500ec0 	call	50500ec <strlen>
 5041150:	1007883a 	mov	r3,r2
 5041154:	e0bffb17 	ldw	r2,-20(fp)
 5041158:	10c00c15 	stw	r3,48(r2)
  scroll->string_points = scroll->length_of_string * 8;
 504115c:	e0bffb17 	ldw	r2,-20(fp)
 5041160:	10800c17 	ldw	r2,48(r2)
 5041164:	100690fa 	slli	r3,r2,3
 5041168:	e0bffb17 	ldw	r2,-20(fp)
 504116c:	10c00e15 	stw	r3,56(r2)
  scroll->scroll_points = (scroll->window_width + scroll->string_points);
 5041170:	e0bffb17 	ldw	r2,-20(fp)
 5041174:	10c00b17 	ldw	r3,44(r2)
 5041178:	e0bffb17 	ldw	r2,-20(fp)
 504117c:	10800e17 	ldw	r2,56(r2)
 5041180:	1887883a 	add	r3,r3,r2
 5041184:	e0bffb17 	ldw	r2,-20(fp)
 5041188:	10c00d15 	stw	r3,52(r2)
 
  return(scroll);
 504118c:	e0bffb17 	ldw	r2,-20(fp)
  
}
 5041190:	e037883a 	mov	sp,fp
 5041194:	dfc00117 	ldw	ra,4(sp)
 5041198:	df000017 	ldw	fp,0(sp)
 504119c:	dec00204 	addi	sp,sp,8
 50411a0:	f800283a 	ret

050411a4 <vid_scroll_string>:


int vid_scroll_string(vid_text_scroll_struct* scroll, alt_video_display* display)
{
 50411a4:	deffec04 	addi	sp,sp,-80
 50411a8:	dfc01315 	stw	ra,76(sp)
 50411ac:	df001215 	stw	fp,72(sp)
 50411b0:	dc401115 	stw	r17,68(sp)
 50411b4:	dc001015 	stw	r16,64(sp)
 50411b8:	df001204 	addi	fp,sp,72
 50411bc:	e13ffc15 	stw	r4,-16(fp)
 50411c0:	e17ffd15 	stw	r5,-12(fp)

  int x_start, x_end, x_index, string_x_index, string_char_index, char_row, char_column;
  char character, column_mask;
  char* font_char_ptr;
  char pixels_to_move_by = 1;
 50411c4:	00800044 	movi	r2,1
 50411c8:	e0bff605 	stb	r2,-40(fp)
 50411cc:	d4281d17 	ldw	r16,-24460(gp)

  // If it's time to move the scroll..
  if (alt_nticks() >= (scroll->ticks_at_last_move + ((alt_ticks_per_second() * (scroll->ms_delay)) / 1000))) {
 50411d0:	e0bffc17 	ldw	r2,-16(fp)
 50411d4:	10800817 	ldw	r2,32(r2)
 50411d8:	1023883a 	mov	r17,r2
 * Obtain the system clock rate in ticks/s. 
 */

static ALT_INLINE alt_u32 ALT_ALWAYS_INLINE alt_ticks_per_second (void)
{
  return _alt_tick_rate;
 50411dc:	d0a81c17 	ldw	r2,-24464(gp)
 50411e0:	e0fffc17 	ldw	r3,-16(fp)
 50411e4:	18c00717 	ldw	r3,28(r3)
 50411e8:	10c5383a 	mul	r2,r2,r3
 50411ec:	0140fa04 	movi	r5,1000
 50411f0:	1009883a 	mov	r4,r2
 50411f4:	504b6b40 	call	504b6b4 <__udivsi3>
 50411f8:	8885883a 	add	r2,r17,r2
 50411fc:	8080b936 	bltu	r16,r2,50414e4 <vid_scroll_string+0x340>
 * alt_nticks() returns the elapsed number of system clock ticks since reset.
 */

static ALT_INLINE alt_u32 ALT_ALWAYS_INLINE alt_nticks (void)
{
  return _alt_nticks;
 5041200:	d0a81d17 	ldw	r2,-24460(gp)
    scroll->ticks_at_last_move = alt_nticks();
 5041204:	1007883a 	mov	r3,r2
 5041208:	e0bffc17 	ldw	r2,-16(fp)
 504120c:	10c00815 	stw	r3,32(r2)
    
    // Track where we are in the scroll.
    if(scroll->text_scroll_started == 0) {
 5041210:	e0bffc17 	ldw	r2,-16(fp)
 5041214:	10800a03 	ldbu	r2,40(r2)
 5041218:	10803fcc 	andi	r2,r2,255
 504121c:	1080201c 	xori	r2,r2,128
 5041220:	10bfe004 	addi	r2,r2,-128
 5041224:	1000061e 	bne	r2,zero,5041240 <vid_scroll_string+0x9c>
      scroll->text_scroll_index = 0;
 5041228:	e0bffc17 	ldw	r2,-16(fp)
 504122c:	10000915 	stw	zero,36(r2)
      scroll->text_scroll_started = 1;
 5041230:	e0bffc17 	ldw	r2,-16(fp)
 5041234:	00c00044 	movi	r3,1
 5041238:	10c00a05 	stb	r3,40(r2)
 504123c:	00000e06 	br	5041278 <vid_scroll_string+0xd4>
    } else if(scroll->text_scroll_index >= scroll->scroll_points)  {
 5041240:	e0bffc17 	ldw	r2,-16(fp)
 5041244:	10c00917 	ldw	r3,36(r2)
 5041248:	e0bffc17 	ldw	r2,-16(fp)
 504124c:	10800d17 	ldw	r2,52(r2)
 5041250:	18800316 	blt	r3,r2,5041260 <vid_scroll_string+0xbc>
      scroll->text_scroll_started = 0;
 5041254:	e0bffc17 	ldw	r2,-16(fp)
 5041258:	10000a05 	stb	zero,40(r2)
 504125c:	00000606 	br	5041278 <vid_scroll_string+0xd4>
    } else {
      scroll->text_scroll_index += pixels_to_move_by;
 5041260:	e0bffc17 	ldw	r2,-16(fp)
 5041264:	10c00917 	ldw	r3,36(r2)
 5041268:	e0bff607 	ldb	r2,-40(fp)
 504126c:	1887883a 	add	r3,r3,r2
 5041270:	e0bffc17 	ldw	r2,-16(fp)
 5041274:	10c00915 	stw	r3,36(r2)
    }
    
    //Find out where we start
    if (scroll->text_scroll_index < scroll->window_width) {
 5041278:	e0bffc17 	ldw	r2,-16(fp)
 504127c:	10c00917 	ldw	r3,36(r2)
 5041280:	e0bffc17 	ldw	r2,-16(fp)
 5041284:	10800b17 	ldw	r2,44(r2)
 5041288:	18800a0e 	bge	r3,r2,50412b4 <vid_scroll_string+0x110>
      x_start = scroll->hbegin + scroll->window_width - scroll->text_scroll_index;
 504128c:	e0bffc17 	ldw	r2,-16(fp)
 5041290:	10c00017 	ldw	r3,0(r2)
 5041294:	e0bffc17 	ldw	r2,-16(fp)
 5041298:	10800b17 	ldw	r2,44(r2)
 504129c:	1887883a 	add	r3,r3,r2
 50412a0:	e0bffc17 	ldw	r2,-16(fp)
 50412a4:	10800917 	ldw	r2,36(r2)
 50412a8:	1885c83a 	sub	r2,r3,r2
 50412ac:	e0bff115 	stw	r2,-60(fp)
 50412b0:	00000306 	br	50412c0 <vid_scroll_string+0x11c>
    } else {
      x_start = scroll->hbegin;
 50412b4:	e0bffc17 	ldw	r2,-16(fp)
 50412b8:	10800017 	ldw	r2,0(r2)
 50412bc:	e0bff115 	stw	r2,-60(fp)
    }
    //Find out where we end
    if (scroll->string_points > scroll->text_scroll_index) {
 50412c0:	e0bffc17 	ldw	r2,-16(fp)
 50412c4:	10800e17 	ldw	r2,56(r2)
 50412c8:	e0fffc17 	ldw	r3,-16(fp)
 50412cc:	18c00917 	ldw	r3,36(r3)
 50412d0:	1880040e 	bge	r3,r2,50412e4 <vid_scroll_string+0x140>
      x_end = scroll->hend;
 50412d4:	e0bffc17 	ldw	r2,-16(fp)
 50412d8:	10800217 	ldw	r2,8(r2)
 50412dc:	e0bff215 	stw	r2,-56(fp)
 50412e0:	00000906 	br	5041308 <vid_scroll_string+0x164>
    } else {
      x_end = (scroll->hend - scroll->text_scroll_index + scroll->string_points);
 50412e4:	e0bffc17 	ldw	r2,-16(fp)
 50412e8:	10c00217 	ldw	r3,8(r2)
 50412ec:	e0bffc17 	ldw	r2,-16(fp)
 50412f0:	10800917 	ldw	r2,36(r2)
 50412f4:	1887c83a 	sub	r3,r3,r2
 50412f8:	e0bffc17 	ldw	r2,-16(fp)
 50412fc:	10800e17 	ldw	r2,56(r2)
 5041300:	1885883a 	add	r2,r3,r2
 5041304:	e0bff215 	stw	r2,-56(fp)
    }

    // Write the string segment a column (x) at a time
    for(x_index = x_start; x_index < x_end; x_index++) {
 5041308:	e0bff117 	ldw	r2,-60(fp)
 504130c:	e0bff315 	stw	r2,-52(fp)
 5041310:	00006006 	br	5041494 <vid_scroll_string+0x2f0>
      // Find the x index we're at within the string
      // If first part of string hasnt yet reached left side of scroll window
      if (scroll->text_scroll_index < scroll->window_width) {
 5041314:	e0bffc17 	ldw	r2,-16(fp)
 5041318:	10c00917 	ldw	r3,36(r2)
 504131c:	e0bffc17 	ldw	r2,-16(fp)
 5041320:	10800b17 	ldw	r2,44(r2)
 5041324:	1880050e 	bge	r3,r2,504133c <vid_scroll_string+0x198>
        string_x_index = (x_index - x_start);
 5041328:	e0fff317 	ldw	r3,-52(fp)
 504132c:	e0bff117 	ldw	r2,-60(fp)
 5041330:	1885c83a 	sub	r2,r3,r2
 5041334:	e0bff415 	stw	r2,-48(fp)
 5041338:	00000a06 	br	5041364 <vid_scroll_string+0x1c0>
      } else {
        string_x_index = scroll->text_scroll_index - scroll->window_width + x_index - x_start;
 504133c:	e0bffc17 	ldw	r2,-16(fp)
 5041340:	10c00917 	ldw	r3,36(r2)
 5041344:	e0bffc17 	ldw	r2,-16(fp)
 5041348:	10800b17 	ldw	r2,44(r2)
 504134c:	1887c83a 	sub	r3,r3,r2
 5041350:	e0bff317 	ldw	r2,-52(fp)
 5041354:	1887883a 	add	r3,r3,r2
 5041358:	e0bff117 	ldw	r2,-60(fp)
 504135c:	1885c83a 	sub	r2,r3,r2
 5041360:	e0bff415 	stw	r2,-48(fp)
      }
      //Find the character we're supposed to be writing
      string_char_index = (string_x_index / 8);
 5041364:	e0bff417 	ldw	r2,-48(fp)
 5041368:	1000010e 	bge	r2,zero,5041370 <vid_scroll_string+0x1cc>
 504136c:	108001c4 	addi	r2,r2,7
 5041370:	1005d0fa 	srai	r2,r2,3
 5041374:	e0bff715 	stw	r2,-36(fp)
      character = scroll->string[string_char_index];
 5041378:	e0bffc17 	ldw	r2,-16(fp)
 504137c:	10c00517 	ldw	r3,20(r2)
 5041380:	e0bff717 	ldw	r2,-36(fp)
 5041384:	1885883a 	add	r2,r3,r2
 5041388:	10800003 	ldbu	r2,0(r2)
 504138c:	e0bff805 	stb	r2,-32(fp)
      char_column = (string_x_index % 8);
 5041390:	e0fff417 	ldw	r3,-48(fp)
 5041394:	00a00034 	movhi	r2,32768
 5041398:	108001c4 	addi	r2,r2,7
 504139c:	1884703a 	and	r2,r3,r2
 50413a0:	1000040e 	bge	r2,zero,50413b4 <vid_scroll_string+0x210>
 50413a4:	10bfffc4 	addi	r2,r2,-1
 50413a8:	00fffe04 	movi	r3,-8
 50413ac:	10c4b03a 	or	r2,r2,r3
 50413b0:	10800044 	addi	r2,r2,1
 50413b4:	e0bff915 	stw	r2,-28(fp)
      column_mask = (((unsigned int)0x80) >> char_column);
 50413b8:	00c02004 	movi	r3,128
 50413bc:	e0bff917 	ldw	r2,-28(fp)
 50413c0:	1884d83a 	srl	r2,r3,r2
 50413c4:	e0bffa05 	stb	r2,-24(fp)
      font_char_ptr = (scroll->font + ((character - 0x20) * FONT_10PT_ROW));
 50413c8:	e0bffc17 	ldw	r2,-16(fp)
 50413cc:	10800617 	ldw	r2,24(r2)
 50413d0:	e0fff807 	ldb	r3,-32(fp)
 50413d4:	18fff804 	addi	r3,r3,-32
 50413d8:	18c002e4 	muli	r3,r3,11
 50413dc:	10c5883a 	add	r2,r2,r3
 50413e0:	e0bffb15 	stw	r2,-20(fp)
      //We have all the data now, so let's write a column
      for(char_row = 0; char_row < 11; char_row++) {
 50413e4:	e03ff515 	stw	zero,-44(fp)
 50413e8:	00002406 	br	504147c <vid_scroll_string+0x2d8>
        // If the font table says this pixel is on, then set it to the foreground color
        if (*(font_char_ptr + char_row) & column_mask) {
 50413ec:	e0bff517 	ldw	r2,-44(fp)
 50413f0:	e0fffb17 	ldw	r3,-20(fp)
 50413f4:	1885883a 	add	r2,r3,r2
 50413f8:	10c00003 	ldbu	r3,0(r2)
 50413fc:	e0bffa03 	ldbu	r2,-24(fp)
 5041400:	1884703a 	and	r2,r3,r2
 5041404:	10803fcc 	andi	r2,r2,255
 5041408:	1080201c 	xori	r2,r2,128
 504140c:	10bfe004 	addi	r2,r2,-128
 5041410:	10000c26 	beq	r2,zero,5041444 <vid_scroll_string+0x2a0>
          vid_set_pixel(x_index, scroll->vbegin + char_row, scroll->f_color, display); 
 5041414:	e0bffc17 	ldw	r2,-16(fp)
 5041418:	10c00117 	ldw	r3,4(r2)
 504141c:	e0bff517 	ldw	r2,-44(fp)
 5041420:	1887883a 	add	r3,r3,r2
 5041424:	e0bffc17 	ldw	r2,-16(fp)
 5041428:	10800317 	ldw	r2,12(r2)
 504142c:	e1fffd17 	ldw	r7,-12(fp)
 5041430:	100d883a 	mov	r6,r2
 5041434:	180b883a 	mov	r5,r3
 5041438:	e13ff317 	ldw	r4,-52(fp)
 504143c:	50419700 	call	5041970 <vid_set_pixel>
 5041440:	00000b06 	br	5041470 <vid_scroll_string+0x2cc>
        // Otherwise, set it to the background color.
        } else {
          vid_set_pixel(x_index, scroll->vbegin + char_row, scroll->b_color, display); //background color
 5041444:	e0bffc17 	ldw	r2,-16(fp)
 5041448:	10c00117 	ldw	r3,4(r2)
 504144c:	e0bff517 	ldw	r2,-44(fp)
 5041450:	1887883a 	add	r3,r3,r2
 5041454:	e0bffc17 	ldw	r2,-16(fp)
 5041458:	10800417 	ldw	r2,16(r2)
 504145c:	e1fffd17 	ldw	r7,-12(fp)
 5041460:	100d883a 	mov	r6,r2
 5041464:	180b883a 	mov	r5,r3
 5041468:	e13ff317 	ldw	r4,-52(fp)
 504146c:	50419700 	call	5041970 <vid_set_pixel>
      character = scroll->string[string_char_index];
      char_column = (string_x_index % 8);
      column_mask = (((unsigned int)0x80) >> char_column);
      font_char_ptr = (scroll->font + ((character - 0x20) * FONT_10PT_ROW));
      //We have all the data now, so let's write a column
      for(char_row = 0; char_row < 11; char_row++) {
 5041470:	e0bff517 	ldw	r2,-44(fp)
 5041474:	10800044 	addi	r2,r2,1
 5041478:	e0bff515 	stw	r2,-44(fp)
 504147c:	e0bff517 	ldw	r2,-44(fp)
 5041480:	108002d0 	cmplti	r2,r2,11
 5041484:	103fd91e 	bne	r2,zero,50413ec <_gp+0xfffd5c74>
    } else {
      x_end = (scroll->hend - scroll->text_scroll_index + scroll->string_points);
    }

    // Write the string segment a column (x) at a time
    for(x_index = x_start; x_index < x_end; x_index++) {
 5041488:	e0bff317 	ldw	r2,-52(fp)
 504148c:	10800044 	addi	r2,r2,1
 5041490:	e0bff315 	stw	r2,-52(fp)
 5041494:	e0fff317 	ldw	r3,-52(fp)
 5041498:	e0bff217 	ldw	r2,-56(fp)
 504149c:	18bf9d16 	blt	r3,r2,5041314 <_gp+0xfffd5b9c>
          vid_set_pixel(x_index, scroll->vbegin + char_row, scroll->b_color, display); //background color
        }
      }
    }
    // Erase the leftover column (x) of the last string we wrote.
    vid_draw_line(x_end, scroll->vbegin, x_end, scroll->vbegin + 10, 1, scroll->b_color, display);
 50414a0:	e0bffc17 	ldw	r2,-16(fp)
 50414a4:	11000117 	ldw	r4,4(r2)
 50414a8:	e0bffc17 	ldw	r2,-16(fp)
 50414ac:	10800117 	ldw	r2,4(r2)
 50414b0:	11400284 	addi	r5,r2,10
 50414b4:	e0bffc17 	ldw	r2,-16(fp)
 50414b8:	10800417 	ldw	r2,16(r2)
 50414bc:	e0fffd17 	ldw	r3,-12(fp)
 50414c0:	d8c00215 	stw	r3,8(sp)
 50414c4:	d8800115 	stw	r2,4(sp)
 50414c8:	00800044 	movi	r2,1
 50414cc:	d8800015 	stw	r2,0(sp)
 50414d0:	280f883a 	mov	r7,r5
 50414d4:	e1bff217 	ldw	r6,-56(fp)
 50414d8:	200b883a 	mov	r5,r4
 50414dc:	e13ff217 	ldw	r4,-56(fp)
 50414e0:	5040f480 	call	5040f48 <vid_draw_line>
    // Log what time we moved the scroll.
  }
  return(0);
 50414e4:	0005883a 	mov	r2,zero
}
 50414e8:	e6fffe04 	addi	sp,fp,-8
 50414ec:	dfc00317 	ldw	ra,12(sp)
 50414f0:	df000217 	ldw	fp,8(sp)
 50414f4:	dc400117 	ldw	r17,4(sp)
 50414f8:	dc000017 	ldw	r16,0(sp)
 50414fc:	dec00404 	addi	sp,sp,16
 5041500:	f800283a 	ret

05041504 <vid_move_block>:
*           the backfill_color parameter.
*
******************************************************************/

int vid_move_block(int xbegin, int ybegin, int xend, int yend, int x_distance, int y_distance, int backfill_color, alt_video_display* display)
{
 5041504:	defff504 	addi	sp,sp,-44
 5041508:	dfc00a15 	stw	ra,40(sp)
 504150c:	df000915 	stw	fp,36(sp)
 5041510:	df000904 	addi	fp,sp,36
 5041514:	e13ffc15 	stw	r4,-16(fp)
 5041518:	e17ffd15 	stw	r5,-12(fp)
 504151c:	e1bffe15 	stw	r6,-8(fp)
 5041520:	e1ffff15 	stw	r7,-4(fp)
  int read_x, read_y, write_x, write_y;
  short temp_pixel;
  
  if(x_distance <= 0 && y_distance <= 0) {  
 5041524:	e0800217 	ldw	r2,8(fp)
 5041528:	00803716 	blt	zero,r2,5041608 <vid_move_block+0x104>
 504152c:	e0800317 	ldw	r2,12(fp)
 5041530:	00803516 	blt	zero,r2,5041608 <vid_move_block+0x104>
    //Move by rows because they are contiguous in memory (could help speed if in SDRAM)
    for (read_y = ybegin; read_y < yend; read_y++) {
 5041534:	e0bffd17 	ldw	r2,-12(fp)
 5041538:	e0bff815 	stw	r2,-32(fp)
 504153c:	00002f06 	br	50415fc <vid_move_block+0xf8>
      write_y = read_y + y_distance;
 5041540:	e0fff817 	ldw	r3,-32(fp)
 5041544:	e0800317 	ldw	r2,12(fp)
 5041548:	1885883a 	add	r2,r3,r2
 504154c:	e0bff915 	stw	r2,-28(fp)
      for(read_x = xbegin; read_x < xend; read_x++) {
 5041550:	e0bffc17 	ldw	r2,-16(fp)
 5041554:	e0bff715 	stw	r2,-36(fp)
 5041558:	00002206 	br	50415e4 <vid_move_block+0xe0>
        write_x = read_x + x_distance;
 504155c:	e0fff717 	ldw	r3,-36(fp)
 5041560:	e0800217 	ldw	r2,8(fp)
 5041564:	1885883a 	add	r2,r3,r2
 5041568:	e0bffa15 	stw	r2,-24(fp)
        temp_pixel = vid_get_pixel(read_x, read_y, display);
 504156c:	e1800517 	ldw	r6,20(fp)
 5041570:	e17ff817 	ldw	r5,-32(fp)
 5041574:	e13ff717 	ldw	r4,-36(fp)
 5041578:	5041a140 	call	5041a14 <vid_get_pixel>
 504157c:	e0bffb0d 	sth	r2,-20(fp)
        vid_set_pixel(write_x, write_y, temp_pixel, display);
 5041580:	e0bffb0f 	ldh	r2,-20(fp)
 5041584:	e1c00517 	ldw	r7,20(fp)
 5041588:	100d883a 	mov	r6,r2
 504158c:	e17ff917 	ldw	r5,-28(fp)
 5041590:	e13ffa17 	ldw	r4,-24(fp)
 5041594:	50419700 	call	5041970 <vid_set_pixel>
        if(read_x >= xend + x_distance || read_y >= yend + y_distance) 
 5041598:	e0fffe17 	ldw	r3,-8(fp)
 504159c:	e0800217 	ldw	r2,8(fp)
 50415a0:	1885883a 	add	r2,r3,r2
 50415a4:	e0fff717 	ldw	r3,-36(fp)
 50415a8:	1880050e 	bge	r3,r2,50415c0 <vid_move_block+0xbc>
 50415ac:	e0ffff17 	ldw	r3,-4(fp)
 50415b0:	e0800317 	ldw	r2,12(fp)
 50415b4:	1885883a 	add	r2,r3,r2
 50415b8:	e0fff817 	ldw	r3,-32(fp)
 50415bc:	18800616 	blt	r3,r2,50415d8 <vid_move_block+0xd4>
        {
	        vid_set_pixel(read_x, read_y, backfill_color, display);
 50415c0:	e0800417 	ldw	r2,16(fp)
 50415c4:	e1c00517 	ldw	r7,20(fp)
 50415c8:	100d883a 	mov	r6,r2
 50415cc:	e17ff817 	ldw	r5,-32(fp)
 50415d0:	e13ff717 	ldw	r4,-36(fp)
 50415d4:	50419700 	call	5041970 <vid_set_pixel>
  
  if(x_distance <= 0 && y_distance <= 0) {  
    //Move by rows because they are contiguous in memory (could help speed if in SDRAM)
    for (read_y = ybegin; read_y < yend; read_y++) {
      write_y = read_y + y_distance;
      for(read_x = xbegin; read_x < xend; read_x++) {
 50415d8:	e0bff717 	ldw	r2,-36(fp)
 50415dc:	10800044 	addi	r2,r2,1
 50415e0:	e0bff715 	stw	r2,-36(fp)
 50415e4:	e0fff717 	ldw	r3,-36(fp)
 50415e8:	e0bffe17 	ldw	r2,-8(fp)
 50415ec:	18bfdb16 	blt	r3,r2,504155c <_gp+0xfffd5de4>
  int read_x, read_y, write_x, write_y;
  short temp_pixel;
  
  if(x_distance <= 0 && y_distance <= 0) {  
    //Move by rows because they are contiguous in memory (could help speed if in SDRAM)
    for (read_y = ybegin; read_y < yend; read_y++) {
 50415f0:	e0bff817 	ldw	r2,-32(fp)
 50415f4:	10800044 	addi	r2,r2,1
 50415f8:	e0bff815 	stw	r2,-32(fp)
 50415fc:	e0fff817 	ldw	r3,-32(fp)
 5041600:	e0bfff17 	ldw	r2,-4(fp)
 5041604:	18bfce16 	blt	r3,r2,5041540 <_gp+0xfffd5dc8>
	        vid_set_pixel(read_x, read_y, backfill_color, display);
        }
      }
    }
  }
  return (0);
 5041608:	0005883a 	mov	r2,zero
}
 504160c:	e037883a 	mov	sp,fp
 5041610:	dfc00117 	ldw	ra,4(sp)
 5041614:	df000017 	ldw	fp,0(sp)
 5041618:	dec00204 	addi	sp,sp,8
 504161c:	f800283a 	ret

05041620 <vid_print_string>:
*           using the specified font and color.
*           Calls vid_print_char
*
******************************************************************/
int vid_print_string(int horiz_offset, int vert_offset, int color, char *font, alt_video_display* display, char string[])
{
 5041620:	defff604 	addi	sp,sp,-40
 5041624:	dfc00915 	stw	ra,36(sp)
 5041628:	df000815 	stw	fp,32(sp)
 504162c:	df000804 	addi	fp,sp,32
 5041630:	e13ffc15 	stw	r4,-16(fp)
 5041634:	e17ffd15 	stw	r5,-12(fp)
 5041638:	e1bffe15 	stw	r6,-8(fp)
 504163c:	e1ffff15 	stw	r7,-4(fp)
  int i = 0;
 5041640:	e03ffa15 	stw	zero,-24(fp)
  int original_horiz_offset;

  original_horiz_offset = horiz_offset;
 5041644:	e0bffc17 	ldw	r2,-16(fp)
 5041648:	e0bffb15 	stw	r2,-20(fp)

  // Print until we hit the '\0' char.
  while (string[i]) {
 504164c:	00002806 	br	50416f0 <vid_print_string+0xd0>
    //Handle newline char here.
    if (string[i] == '\n') {
 5041650:	e0bffa17 	ldw	r2,-24(fp)
 5041654:	e0c00317 	ldw	r3,12(fp)
 5041658:	1885883a 	add	r2,r3,r2
 504165c:	10800003 	ldbu	r2,0(r2)
 5041660:	10803fcc 	andi	r2,r2,255
 5041664:	1080201c 	xori	r2,r2,128
 5041668:	10bfe004 	addi	r2,r2,-128
 504166c:	10800298 	cmpnei	r2,r2,10
 5041670:	1000091e 	bne	r2,zero,5041698 <vid_print_string+0x78>
      horiz_offset = original_horiz_offset;
 5041674:	e0bffb17 	ldw	r2,-20(fp)
 5041678:	e0bffc15 	stw	r2,-16(fp)
      vert_offset += 12;
 504167c:	e0bffd17 	ldw	r2,-12(fp)
 5041680:	10800304 	addi	r2,r2,12
 5041684:	e0bffd15 	stw	r2,-12(fp)
      i++;
 5041688:	e0bffa17 	ldw	r2,-24(fp)
 504168c:	10800044 	addi	r2,r2,1
 5041690:	e0bffa15 	stw	r2,-24(fp)
      continue;
 5041694:	00001606 	br	50416f0 <vid_print_string+0xd0>
    }
    // Lay down that character and increment our offsets.
    vid_print_char (horiz_offset, vert_offset, color, string[i], font, display);
 5041698:	e0bffa17 	ldw	r2,-24(fp)
 504169c:	e0c00317 	ldw	r3,12(fp)
 50416a0:	1885883a 	add	r2,r3,r2
 50416a4:	10800003 	ldbu	r2,0(r2)
 50416a8:	10c03fcc 	andi	r3,r2,255
 50416ac:	18c0201c 	xori	r3,r3,128
 50416b0:	18ffe004 	addi	r3,r3,-128
 50416b4:	e0800217 	ldw	r2,8(fp)
 50416b8:	d8800115 	stw	r2,4(sp)
 50416bc:	e0bfff17 	ldw	r2,-4(fp)
 50416c0:	d8800015 	stw	r2,0(sp)
 50416c4:	180f883a 	mov	r7,r3
 50416c8:	e1bffe17 	ldw	r6,-8(fp)
 50416cc:	e17ffd17 	ldw	r5,-12(fp)
 50416d0:	e13ffc17 	ldw	r4,-16(fp)
 50416d4:	50418800 	call	5041880 <vid_print_char>
    i++;
 50416d8:	e0bffa17 	ldw	r2,-24(fp)
 50416dc:	10800044 	addi	r2,r2,1
 50416e0:	e0bffa15 	stw	r2,-24(fp)
    horiz_offset += 8;
 50416e4:	e0bffc17 	ldw	r2,-16(fp)
 50416e8:	10800204 	addi	r2,r2,8
 50416ec:	e0bffc15 	stw	r2,-16(fp)
  int original_horiz_offset;

  original_horiz_offset = horiz_offset;

  // Print until we hit the '\0' char.
  while (string[i]) {
 50416f0:	e0bffa17 	ldw	r2,-24(fp)
 50416f4:	e0c00317 	ldw	r3,12(fp)
 50416f8:	1885883a 	add	r2,r3,r2
 50416fc:	10800003 	ldbu	r2,0(r2)
 5041700:	10803fcc 	andi	r2,r2,255
 5041704:	1080201c 	xori	r2,r2,128
 5041708:	10bfe004 	addi	r2,r2,-128
 504170c:	103fd01e 	bne	r2,zero,5041650 <_gp+0xfffd5ed8>
    // Lay down that character and increment our offsets.
    vid_print_char (horiz_offset, vert_offset, color, string[i], font, display);
    i++;
    horiz_offset += 8;
  }
  return (0);
 5041710:	0005883a 	mov	r2,zero
}
 5041714:	e037883a 	mov	sp,fp
 5041718:	dfc00117 	ldw	ra,4(sp)
 504171c:	df000017 	ldw	fp,0(sp)
 5041720:	dec00204 	addi	sp,sp,8
 5041724:	f800283a 	ret

05041728 <vid_draw_box>:
*  points.  The fill parameter tells the function whether or not
*  to fill in the box.  1 = fill, 0 = do not fill.
*
******************************************************************/
int vid_draw_box (int horiz_start, int vert_start, int horiz_end, int vert_end, int color, int fill, alt_video_display* display)
{
 5041728:	defff704 	addi	sp,sp,-36
 504172c:	dfc00815 	stw	ra,32(sp)
 5041730:	df000715 	stw	fp,28(sp)
 5041734:	df000704 	addi	fp,sp,28
 5041738:	e13ffc15 	stw	r4,-16(fp)
 504173c:	e17ffd15 	stw	r5,-12(fp)
 5041740:	e1bffe15 	stw	r6,-8(fp)
 5041744:	e1ffff15 	stw	r7,-4(fp)

  // If we want to fill in our box
  if (fill) {
 5041748:	e0800317 	ldw	r2,12(fp)
 504174c:	10000a26 	beq	r2,zero,5041778 <vid_draw_box+0x50>
     vid_paint_block (horiz_start, vert_start, horiz_end, vert_end, color, display);
 5041750:	e0800417 	ldw	r2,16(fp)
 5041754:	d8800115 	stw	r2,4(sp)
 5041758:	e0800217 	ldw	r2,8(fp)
 504175c:	d8800015 	stw	r2,0(sp)
 5041760:	e1ffff17 	ldw	r7,-4(fp)
 5041764:	e1bffe17 	ldw	r6,-8(fp)
 5041768:	e17ffd17 	ldw	r5,-12(fp)
 504176c:	e13ffc17 	ldw	r4,-16(fp)
 5041770:	5041a540 	call	5041a54 <vid_paint_block>
 5041774:	00003c06 	br	5041868 <vid_draw_box+0x140>
  // If we're not filling in the box, just draw four lines.
  } else {
    vid_draw_line(horiz_start, vert_start, horiz_start, vert_end-1, 3, color, display);
 5041778:	e0bfff17 	ldw	r2,-4(fp)
 504177c:	10ffffc4 	addi	r3,r2,-1
 5041780:	e0800417 	ldw	r2,16(fp)
 5041784:	d8800215 	stw	r2,8(sp)
 5041788:	e0800217 	ldw	r2,8(fp)
 504178c:	d8800115 	stw	r2,4(sp)
 5041790:	008000c4 	movi	r2,3
 5041794:	d8800015 	stw	r2,0(sp)
 5041798:	180f883a 	mov	r7,r3
 504179c:	e1bffc17 	ldw	r6,-16(fp)
 50417a0:	e17ffd17 	ldw	r5,-12(fp)
 50417a4:	e13ffc17 	ldw	r4,-16(fp)
 50417a8:	5040f480 	call	5040f48 <vid_draw_line>
    vid_draw_line(horiz_end-1, vert_start, horiz_end-1, vert_end-1, 3, color, display);
 50417ac:	e0bffe17 	ldw	r2,-8(fp)
 50417b0:	10ffffc4 	addi	r3,r2,-1
 50417b4:	e0bffe17 	ldw	r2,-8(fp)
 50417b8:	113fffc4 	addi	r4,r2,-1
 50417bc:	e0bfff17 	ldw	r2,-4(fp)
 50417c0:	117fffc4 	addi	r5,r2,-1
 50417c4:	e0800417 	ldw	r2,16(fp)
 50417c8:	d8800215 	stw	r2,8(sp)
 50417cc:	e0800217 	ldw	r2,8(fp)
 50417d0:	d8800115 	stw	r2,4(sp)
 50417d4:	008000c4 	movi	r2,3
 50417d8:	d8800015 	stw	r2,0(sp)
 50417dc:	280f883a 	mov	r7,r5
 50417e0:	200d883a 	mov	r6,r4
 50417e4:	e17ffd17 	ldw	r5,-12(fp)
 50417e8:	1809883a 	mov	r4,r3
 50417ec:	5040f480 	call	5040f48 <vid_draw_line>
    vid_draw_line(horiz_start, vert_start, horiz_end-1, vert_start, 3, color, display);
 50417f0:	e0bffe17 	ldw	r2,-8(fp)
 50417f4:	10ffffc4 	addi	r3,r2,-1
 50417f8:	e0800417 	ldw	r2,16(fp)
 50417fc:	d8800215 	stw	r2,8(sp)
 5041800:	e0800217 	ldw	r2,8(fp)
 5041804:	d8800115 	stw	r2,4(sp)
 5041808:	008000c4 	movi	r2,3
 504180c:	d8800015 	stw	r2,0(sp)
 5041810:	e1fffd17 	ldw	r7,-12(fp)
 5041814:	180d883a 	mov	r6,r3
 5041818:	e17ffd17 	ldw	r5,-12(fp)
 504181c:	e13ffc17 	ldw	r4,-16(fp)
 5041820:	5040f480 	call	5040f48 <vid_draw_line>
    vid_draw_line(horiz_start, vert_end-1, horiz_end-1, vert_end-1, 3, color, display);
 5041824:	e0bfff17 	ldw	r2,-4(fp)
 5041828:	10ffffc4 	addi	r3,r2,-1
 504182c:	e0bffe17 	ldw	r2,-8(fp)
 5041830:	113fffc4 	addi	r4,r2,-1
 5041834:	e0bfff17 	ldw	r2,-4(fp)
 5041838:	117fffc4 	addi	r5,r2,-1
 504183c:	e0800417 	ldw	r2,16(fp)
 5041840:	d8800215 	stw	r2,8(sp)
 5041844:	e0800217 	ldw	r2,8(fp)
 5041848:	d8800115 	stw	r2,4(sp)
 504184c:	008000c4 	movi	r2,3
 5041850:	d8800015 	stw	r2,0(sp)
 5041854:	280f883a 	mov	r7,r5
 5041858:	200d883a 	mov	r6,r4
 504185c:	180b883a 	mov	r5,r3
 5041860:	e13ffc17 	ldw	r4,-16(fp)
 5041864:	5040f480 	call	5040f48 <vid_draw_line>
  }

  return (0);
 5041868:	0005883a 	mov	r2,zero
}
 504186c:	e037883a 	mov	sp,fp
 5041870:	dfc00117 	ldw	ra,4(sp)
 5041874:	df000017 	ldw	fp,0(sp)
 5041878:	dec00204 	addi	sp,sp,8
 504187c:	f800283a 	ret

05041880 <vid_print_char>:
*           screen using the specified font and color.
*
******************************************************************/

int vid_print_char (int horiz_offset, int vert_offset, int color, char character, char *font, alt_video_display* display)
{
 5041880:	defff704 	addi	sp,sp,-36
 5041884:	dfc00815 	stw	ra,32(sp)
 5041888:	df000715 	stw	fp,28(sp)
 504188c:	df000704 	addi	fp,sp,28
 5041890:	e13ffc15 	stw	r4,-16(fp)
 5041894:	e17ffd15 	stw	r5,-12(fp)
 5041898:	e1bffe15 	stw	r6,-8(fp)
 504189c:	3805883a 	mov	r2,r7
 50418a0:	e0bfff05 	stb	r2,-4(fp)
  int i, j;
  
  char temp_char, char_row;

  // Convert the ASCII value to an array offset
  temp_char = (character - 0x20);
 50418a4:	e0bfff03 	ldbu	r2,-4(fp)
 50418a8:	10bff804 	addi	r2,r2,-32
 50418ac:	e0bffb05 	stb	r2,-20(fp)

  //Each character is 8 pixels wide and 11 tall.
  for(i = 0; i < 11; i++) {
 50418b0:	e03ff915 	stw	zero,-28(fp)
 50418b4:	00002506 	br	504194c <vid_print_char+0xcc>
      char_row = *(font + (temp_char * FONT_10PT_ROW) + i);
 50418b8:	e0bffb07 	ldb	r2,-20(fp)
 50418bc:	108002e4 	muli	r2,r2,11
 50418c0:	1007883a 	mov	r3,r2
 50418c4:	e0bff917 	ldw	r2,-28(fp)
 50418c8:	1885883a 	add	r2,r3,r2
 50418cc:	e0c00217 	ldw	r3,8(fp)
 50418d0:	1885883a 	add	r2,r3,r2
 50418d4:	10800003 	ldbu	r2,0(r2)
 50418d8:	e0bffb45 	stb	r2,-19(fp)
    for (j = 0; j < 8; j++) {
 50418dc:	e03ffa15 	stw	zero,-24(fp)
 50418e0:	00001406 	br	5041934 <vid_print_char+0xb4>
      //If the font table says the pixel in this location is on for this character, then set it.
      if (char_row & (((unsigned char)0x80) >> j)) {
 50418e4:	e0fffb47 	ldb	r3,-19(fp)
 50418e8:	01002004 	movi	r4,128
 50418ec:	e0bffa17 	ldw	r2,-24(fp)
 50418f0:	2085d83a 	sra	r2,r4,r2
 50418f4:	1884703a 	and	r2,r3,r2
 50418f8:	10000b26 	beq	r2,zero,5041928 <vid_print_char+0xa8>
        vid_set_pixel((horiz_offset + j), (vert_offset + i), color, display); // plot the pixel
 50418fc:	e0fffc17 	ldw	r3,-16(fp)
 5041900:	e0bffa17 	ldw	r2,-24(fp)
 5041904:	1889883a 	add	r4,r3,r2
 5041908:	e0fffd17 	ldw	r3,-12(fp)
 504190c:	e0bff917 	ldw	r2,-28(fp)
 5041910:	1885883a 	add	r2,r3,r2
 5041914:	e0fffe17 	ldw	r3,-8(fp)
 5041918:	e1c00317 	ldw	r7,12(fp)
 504191c:	180d883a 	mov	r6,r3
 5041920:	100b883a 	mov	r5,r2
 5041924:	50419700 	call	5041970 <vid_set_pixel>
  temp_char = (character - 0x20);

  //Each character is 8 pixels wide and 11 tall.
  for(i = 0; i < 11; i++) {
      char_row = *(font + (temp_char * FONT_10PT_ROW) + i);
    for (j = 0; j < 8; j++) {
 5041928:	e0bffa17 	ldw	r2,-24(fp)
 504192c:	10800044 	addi	r2,r2,1
 5041930:	e0bffa15 	stw	r2,-24(fp)
 5041934:	e0bffa17 	ldw	r2,-24(fp)
 5041938:	10800210 	cmplti	r2,r2,8
 504193c:	103fe91e 	bne	r2,zero,50418e4 <_gp+0xfffd616c>

  // Convert the ASCII value to an array offset
  temp_char = (character - 0x20);

  //Each character is 8 pixels wide and 11 tall.
  for(i = 0; i < 11; i++) {
 5041940:	e0bff917 	ldw	r2,-28(fp)
 5041944:	10800044 	addi	r2,r2,1
 5041948:	e0bff915 	stw	r2,-28(fp)
 504194c:	e0bff917 	ldw	r2,-28(fp)
 5041950:	108002d0 	cmplti	r2,r2,11
 5041954:	103fd81e 	bne	r2,zero,50418b8 <_gp+0xfffd6140>
      if (char_row & (((unsigned char)0x80) >> j)) {
        vid_set_pixel((horiz_offset + j), (vert_offset + i), color, display); // plot the pixel
      }
    }
  }
  return(0);
 5041958:	0005883a 	mov	r2,zero
}
 504195c:	e037883a 	mov	sp,fp
 5041960:	dfc00117 	ldw	ra,4(sp)
 5041964:	df000017 	ldw	fp,0(sp)
 5041968:	dec00204 	addi	sp,sp,8
 504196c:	f800283a 	ret

05041970 <vid_set_pixel>:
*           efficient when painting large areas of the screen.
*
******************************************************************/

void vid_set_pixel(int horiz, int vert, unsigned int color, alt_video_display* display)
{
 5041970:	defff904 	addi	sp,sp,-28
 5041974:	dfc00615 	stw	ra,24(sp)
 5041978:	df000515 	stw	fp,20(sp)
 504197c:	df000504 	addi	fp,sp,20
 5041980:	e13ffc15 	stw	r4,-16(fp)
 5041984:	e17ffd15 	stw	r5,-12(fp)
 5041988:	e1bffe15 	stw	r6,-8(fp)
 504198c:	e1ffff15 	stw	r7,-4(fp)
#ifdef LT24
	alt_u16 color16;


	// encode to RGB  5 6 5
	color16 = (color & 0xFF) >> 3; // blue
 5041990:	e0bffe17 	ldw	r2,-8(fp)
 5041994:	10803fcc 	andi	r2,r2,255
 5041998:	1004d0fa 	srli	r2,r2,3
 504199c:	e0bffb0d 	sth	r2,-20(fp)
	color16 |= (color & 0xFC00) >> 5; // green
 50419a0:	e0bffe17 	ldw	r2,-8(fp)
 50419a4:	10bf000c 	andi	r2,r2,64512
 50419a8:	1004d17a 	srli	r2,r2,5
 50419ac:	1007883a 	mov	r3,r2
 50419b0:	e0bffb0b 	ldhu	r2,-20(fp)
 50419b4:	1884b03a 	or	r2,r3,r2
 50419b8:	e0bffb0d 	sth	r2,-20(fp)
	color16 |= (color & 0xF80000) >> 8; // blue
 50419bc:	e0bffe17 	ldw	r2,-8(fp)
 50419c0:	10803e2c 	andhi	r2,r2,248
 50419c4:	1004d23a 	srli	r2,r2,8
 50419c8:	1007883a 	mov	r3,r2
 50419cc:	e0bffb0b 	ldhu	r2,-20(fp)
 50419d0:	1884b03a 	or	r2,r3,r2
 50419d4:	e0bffb0d 	sth	r2,-20(fp)
	LCD_DrawPoint(horiz, vert, color16);
 50419d8:	e0bffc17 	ldw	r2,-16(fp)
 50419dc:	10ffffcc 	andi	r3,r2,65535
 50419e0:	e0bffd17 	ldw	r2,-12(fp)
 50419e4:	10bfffcc 	andi	r2,r2,65535
 50419e8:	e13ffb0b 	ldhu	r4,-20(fp)
 50419ec:	200d883a 	mov	r6,r4
 50419f0:	100b883a 	mov	r5,r2
 50419f4:	1809883a 	mov	r4,r3
 50419f8:	50404200 	call	5040420 <LCD_DrawPoint>
  	addr = ( ( (int)(VIPFR_GetDrawFrame(display)) )+ (vert * (display->width * 2)) + horiz * 2);
  	IOWR_16DIRECT( addr, 0, (int)(color));
	}
#endif

}
 50419fc:	0001883a 	nop
 5041a00:	e037883a 	mov	sp,fp
 5041a04:	dfc00117 	ldw	ra,4(sp)
 5041a08:	df000017 	ldw	fp,0(sp)
 5041a0c:	dec00204 	addi	sp,sp,8
 5041a10:	f800283a 	ret

05041a14 <vid_get_pixel>:
*  Purpose: Reads the color of the pixel at the given coordinates
*
******************************************************************/

short vid_get_pixel(int horiz, int vert, alt_video_display* display)
{
 5041a14:	defffb04 	addi	sp,sp,-20
 5041a18:	dfc00415 	stw	ra,16(sp)
 5041a1c:	df000315 	stw	fp,12(sp)
 5041a20:	df000304 	addi	fp,sp,12
 5041a24:	e13ffd15 	stw	r4,-12(fp)
 5041a28:	e17ffe15 	stw	r5,-8(fp)
 5041a2c:	e1bfff15 	stw	r6,-4(fp)
#ifdef LT24
	printf("vid_get_pixel is not implemented\r\n");
 5041a30:	010141b4 	movhi	r4,1286
 5041a34:	2103c004 	addi	r4,r4,3840
 5041a38:	504ff300 	call	504ff30 <puts>
  int addr;
  
  addr = ( ( (int)(VIPFR_GetDrawFrame(display)) )+ (vert * (display->width * 2)) + horiz * 2);
  return(IORD_16DIRECT(addr, 0));
#endif
}
 5041a3c:	0001883a 	nop
 5041a40:	e037883a 	mov	sp,fp
 5041a44:	dfc00117 	ldw	ra,4(sp)
 5041a48:	df000017 	ldw	fp,0(sp)
 5041a4c:	dec00204 	addi	sp,sp,8
 5041a50:	f800283a 	ret

05041a54 <vid_paint_block>:
*           The color parameter must contain two pixel's worth
*           (32 bits).
*
******************************************************************/
void vid_paint_block (int Hstart,int Vstart, int Hend, int Vend, int color, alt_video_display* display)
{
 5041a54:	defff804 	addi	sp,sp,-32
 5041a58:	dfc00715 	stw	ra,28(sp)
 5041a5c:	df000615 	stw	fp,24(sp)
 5041a60:	df000604 	addi	fp,sp,24
 5041a64:	e13ffc15 	stw	r4,-16(fp)
 5041a68:	e17ffd15 	stw	r5,-12(fp)
 5041a6c:	e1bffe15 	stw	r6,-8(fp)
 5041a70:	e1ffff15 	stw	r7,-4(fp)
#ifdef LT24
	int x,y;
	for(y=Vstart;y<Vend;y++){
 5041a74:	e0bffd17 	ldw	r2,-12(fp)
 5041a78:	e0bffb15 	stw	r2,-20(fp)
 5041a7c:	00001206 	br	5041ac8 <vid_paint_block+0x74>
		for(x=Hstart;x<Hend;x++){
 5041a80:	e0bffc17 	ldw	r2,-16(fp)
 5041a84:	e0bffa15 	stw	r2,-24(fp)
 5041a88:	00000906 	br	5041ab0 <vid_paint_block+0x5c>
			vid_set_pixel(x, y, color, display);
 5041a8c:	e0800217 	ldw	r2,8(fp)
 5041a90:	e1c00317 	ldw	r7,12(fp)
 5041a94:	100d883a 	mov	r6,r2
 5041a98:	e17ffb17 	ldw	r5,-20(fp)
 5041a9c:	e13ffa17 	ldw	r4,-24(fp)
 5041aa0:	50419700 	call	5041970 <vid_set_pixel>
void vid_paint_block (int Hstart,int Vstart, int Hend, int Vend, int color, alt_video_display* display)
{
#ifdef LT24
	int x,y;
	for(y=Vstart;y<Vend;y++){
		for(x=Hstart;x<Hend;x++){
 5041aa4:	e0bffa17 	ldw	r2,-24(fp)
 5041aa8:	10800044 	addi	r2,r2,1
 5041aac:	e0bffa15 	stw	r2,-24(fp)
 5041ab0:	e0fffa17 	ldw	r3,-24(fp)
 5041ab4:	e0bffe17 	ldw	r2,-8(fp)
 5041ab8:	18bff416 	blt	r3,r2,5041a8c <_gp+0xfffd6314>
******************************************************************/
void vid_paint_block (int Hstart,int Vstart, int Hend, int Vend, int color, alt_video_display* display)
{
#ifdef LT24
	int x,y;
	for(y=Vstart;y<Vend;y++){
 5041abc:	e0bffb17 	ldw	r2,-20(fp)
 5041ac0:	10800044 	addi	r2,r2,1
 5041ac4:	e0bffb15 	stw	r2,-20(fp)
 5041ac8:	e0fffb17 	ldw	r3,-20(fp)
 5041acc:	e0bfff17 	ldw	r2,-4(fp)
 5041ad0:	18bfeb16 	blt	r3,r2,5041a80 <_gp+0xfffd6308>
    memcpy( (void*)addr, line, bytes_per_line );
    addr += (display->width * bytes_per_pixel);
  }
  free (line);
#endif
}
 5041ad4:	0001883a 	nop
 5041ad8:	e037883a 	mov	sp,fp
 5041adc:	dfc00117 	ldw	ra,4(sp)
 5041ae0:	df000017 	ldw	fp,0(sp)
 5041ae4:	dec00204 	addi	sp,sp,8
 5041ae8:	f800283a 	ret

05041aec <vid_draw_horiz_line>:
*  Purpose: Draws a horizontal line on the screen quickly.
*           Good for filling stuff.
*
******************************************************************/
void vid_draw_horiz_line (short Hstart, short Hend, int V, int color, alt_video_display* display)
{
 5041aec:	defff904 	addi	sp,sp,-28
 5041af0:	dfc00615 	stw	ra,24(sp)
 5041af4:	df000515 	stw	fp,20(sp)
 5041af8:	df000504 	addi	fp,sp,20
 5041afc:	2007883a 	mov	r3,r4
 5041b00:	2805883a 	mov	r2,r5
 5041b04:	e1bffe15 	stw	r6,-8(fp)
 5041b08:	e1ffff15 	stw	r7,-4(fp)
 5041b0c:	e0fffc0d 	sth	r3,-16(fp)
 5041b10:	e0bffd0d 	sth	r2,-12(fp)
#ifdef LT24
	int x;
	for(x=Hstart;x<Hend;x++){
 5041b14:	e0bffc0f 	ldh	r2,-16(fp)
 5041b18:	e0bffb15 	stw	r2,-20(fp)
 5041b1c:	00000906 	br	5041b44 <vid_draw_horiz_line+0x58>
		vid_set_pixel(x, V, color, display);
 5041b20:	e0bfff17 	ldw	r2,-4(fp)
 5041b24:	e1c00217 	ldw	r7,8(fp)
 5041b28:	100d883a 	mov	r6,r2
 5041b2c:	e17ffe17 	ldw	r5,-8(fp)
 5041b30:	e13ffb17 	ldw	r4,-20(fp)
 5041b34:	50419700 	call	5041970 <vid_set_pixel>
******************************************************************/
void vid_draw_horiz_line (short Hstart, short Hend, int V, int color, alt_video_display* display)
{
#ifdef LT24
	int x;
	for(x=Hstart;x<Hend;x++){
 5041b38:	e0bffb17 	ldw	r2,-20(fp)
 5041b3c:	10800044 	addi	r2,r2,1
 5041b40:	e0bffb15 	stw	r2,-20(fp)
 5041b44:	e0bffd0f 	ldh	r2,-12(fp)
 5041b48:	e0fffb17 	ldw	r3,-20(fp)
 5041b4c:	18bff416 	blt	r3,r2,5041b20 <_gp+0xfffd63a8>
    memcpy( (void*)addr, fast_buffer, bytes_per_line );
  }
  free(fast_buffer);
#endif

}
 5041b50:	0001883a 	nop
 5041b54:	e037883a 	mov	sp,fp
 5041b58:	dfc00117 	ldw	ra,4(sp)
 5041b5c:	df000017 	ldw	fp,0(sp)
 5041b60:	dec00204 	addi	sp,sp,8
 5041b64:	f800283a 	ret

05041b68 <vid_merge_colors>:
*  Purpose: Takes 5-bit color values for each red, green, and blue
*           and merges them into one 16-bit color value.
*
******************************************************************/
int vid_merge_colors(int red, int green, int blue)
{
 5041b68:	defffc04 	addi	sp,sp,-16
 5041b6c:	df000315 	stw	fp,12(sp)
 5041b70:	df000304 	addi	fp,sp,12
 5041b74:	e13ffd15 	stw	r4,-12(fp)
 5041b78:	e17ffe15 	stw	r5,-8(fp)
 5041b7c:	e1bfff15 	stw	r6,-4(fp)
  // Green actually has 6-bits, but we'll make it's LSB 1 to be consistent.
  return ((blue) | (((green << 1) | 0x1) << 5) | (red << 11));
 5041b80:	e0bffe17 	ldw	r2,-8(fp)
 5041b84:	1085883a 	add	r2,r2,r2
 5041b88:	10800054 	ori	r2,r2,1
 5041b8c:	1006917a 	slli	r3,r2,5
 5041b90:	e0bfff17 	ldw	r2,-4(fp)
 5041b94:	1886b03a 	or	r3,r3,r2
 5041b98:	e0bffd17 	ldw	r2,-12(fp)
 5041b9c:	100492fa 	slli	r2,r2,11
 5041ba0:	1884b03a 	or	r2,r3,r2
}
 5041ba4:	e037883a 	mov	sp,fp
 5041ba8:	df000017 	ldw	fp,0(sp)
 5041bac:	dec00104 	addi	sp,sp,4
 5041bb0:	f800283a 	ret

05041bb4 <vid_color_convert24_16>:
*           sample and converts it to 16-bits, displayable by the 
*           VGA controller in 16-bit mode
*
******************************************************************/
unsigned short vid_color_convert24_16(char* color24)
{
 5041bb4:	defffc04 	addi	sp,sp,-16
 5041bb8:	df000315 	stw	fp,12(sp)
 5041bbc:	df000304 	addi	fp,sp,12
 5041bc0:	e13fff15 	stw	r4,-4(fp)
	unsigned char red, green, blue;
	unsigned short output;
	
	red = *(color24 + 0) & 0xF8;
 5041bc4:	e0bfff17 	ldw	r2,-4(fp)
 5041bc8:	10800003 	ldbu	r2,0(r2)
 5041bcc:	1007883a 	mov	r3,r2
 5041bd0:	00bffe04 	movi	r2,-8
 5041bd4:	1884703a 	and	r2,r3,r2
 5041bd8:	e0bffd05 	stb	r2,-12(fp)
	green = *(color24 + 1) & 0xFC; // green is actualy 6 bits
 5041bdc:	e0bfff17 	ldw	r2,-4(fp)
 5041be0:	10800044 	addi	r2,r2,1
 5041be4:	10800003 	ldbu	r2,0(r2)
 5041be8:	1007883a 	mov	r3,r2
 5041bec:	00bfff04 	movi	r2,-4
 5041bf0:	1884703a 	and	r2,r3,r2
 5041bf4:	e0bffd45 	stb	r2,-11(fp)
	blue = *(color24 + 2) & 0xF8;
 5041bf8:	e0bfff17 	ldw	r2,-4(fp)
 5041bfc:	10800084 	addi	r2,r2,2
 5041c00:	10800003 	ldbu	r2,0(r2)
 5041c04:	1007883a 	mov	r3,r2
 5041c08:	00bffe04 	movi	r2,-8
 5041c0c:	1884703a 	and	r2,r3,r2
 5041c10:	e0bffd85 	stb	r2,-10(fp)

	output = ((blue >> 3) | (green << 3) | (red << 8));  
 5041c14:	e0bffd83 	ldbu	r2,-10(fp)
 5041c18:	1004d0fa 	srli	r2,r2,3
 5041c1c:	10803fcc 	andi	r2,r2,255
 5041c20:	e0fffd43 	ldbu	r3,-11(fp)
 5041c24:	180690fa 	slli	r3,r3,3
 5041c28:	10c4b03a 	or	r2,r2,r3
 5041c2c:	1007883a 	mov	r3,r2
 5041c30:	e0bffd03 	ldbu	r2,-12(fp)
 5041c34:	1004923a 	slli	r2,r2,8
 5041c38:	1884b03a 	or	r2,r3,r2
 5041c3c:	e0bffe0d 	sth	r2,-8(fp)
	return output;
 5041c40:	e0bffe0b 	ldhu	r2,-8(fp)
}
 5041c44:	e037883a 	mov	sp,fp
 5041c48:	df000017 	ldw	fp,0(sp)
 5041c4c:	dec00104 	addi	sp,sp,4
 5041c50:	f800283a 	ret

05041c54 <vid_color_convert16_24>:
*           sample and converts it to 16-bits, displayable by the 
*           VGA controller in 16-bit mode
*
******************************************************************/
int vid_color_convert16_24(unsigned short color16, char* color24)
{
 5041c54:	defffd04 	addi	sp,sp,-12
 5041c58:	df000215 	stw	fp,8(sp)
 5041c5c:	df000204 	addi	fp,sp,8
 5041c60:	2005883a 	mov	r2,r4
 5041c64:	e17fff15 	stw	r5,-4(fp)
 5041c68:	e0bffe0d 	sth	r2,-8(fp)
	*(color24 + 0) = color16 >> 11;
 5041c6c:	e0bffe0b 	ldhu	r2,-8(fp)
 5041c70:	1004d2fa 	srli	r2,r2,11
 5041c74:	1007883a 	mov	r3,r2
 5041c78:	e0bfff17 	ldw	r2,-4(fp)
 5041c7c:	10c00005 	stb	r3,0(r2)
	*(color24 + 1) = ((color16 & 0x3E) >> 5);
 5041c80:	e0bfff17 	ldw	r2,-4(fp)
 5041c84:	10800044 	addi	r2,r2,1
 5041c88:	e0fffe0b 	ldhu	r3,-8(fp)
 5041c8c:	18c00f8c 	andi	r3,r3,62
 5041c90:	1807d17a 	srai	r3,r3,5
 5041c94:	10c00005 	stb	r3,0(r2)
	*(color24 + 2) = (color16 & 0x1F);
 5041c98:	e0bfff17 	ldw	r2,-4(fp)
 5041c9c:	10800084 	addi	r2,r2,2
 5041ca0:	e0fffe0b 	ldhu	r3,-8(fp)
 5041ca4:	18c007cc 	andi	r3,r3,31
 5041ca8:	10c00005 	stb	r3,0(r2)
	
	return (0);
 5041cac:	0005883a 	mov	r2,zero
}
 5041cb0:	e037883a 	mov	sp,fp
 5041cb4:	df000017 	ldw	fp,0(sp)
 5041cb8:	dec00104 	addi	sp,sp,4
 5041cbc:	f800283a 	ret

05041cc0 <vid_copy_line_to_frame_buffer>:
*           the specified coordinates.  Converts color depth if
*           necessary.
*
******************************************************************/
int vid_copy_line_to_frame_buffer( int x, int y, char* buffer, int num_pixels, int source_color_depth, alt_video_display* display )
{
 5041cc0:	defffa04 	addi	sp,sp,-24
 5041cc4:	dfc00515 	stw	ra,20(sp)
 5041cc8:	df000415 	stw	fp,16(sp)
 5041ccc:	df000404 	addi	fp,sp,16
 5041cd0:	e13ffc15 	stw	r4,-16(fp)
 5041cd4:	e17ffd15 	stw	r5,-12(fp)
 5041cd8:	e1bffe15 	stw	r6,-8(fp)
 5041cdc:	e1ffff15 	stw	r7,-4(fp)
#ifdef LT24
	printf("vid_copy_line_to_frame_buffer is not implemented!\r\n");
 5041ce0:	010141b4 	movhi	r4,1286
 5041ce4:	2103c904 	addi	r4,r4,3876
 5041ce8:	504ff300 	call	504ff30 <puts>
      memcpy( (void*)dest_addr, (void*)buffer, bytes_in_line );
    }
  }
  return(0);
#endif
}
 5041cec:	0001883a 	nop
 5041cf0:	e037883a 	mov	sp,fp
 5041cf4:	dfc00117 	ldw	ra,4(sp)
 5041cf8:	df000017 	ldw	fp,0(sp)
 5041cfc:	dec00204 	addi	sp,sp,8
 5041d00:	f800283a 	ret

05041d04 <vid_draw_sloped_line>:
                           unsigned short horiz_end, 
                           unsigned short vert_end, 
                           unsigned short width, 
                           int color, 
                           alt_video_display* display)
{
 5041d04:	deffef04 	addi	sp,sp,-68
 5041d08:	dfc01015 	stw	ra,64(sp)
 5041d0c:	df000f15 	stw	fp,60(sp)
 5041d10:	df000f04 	addi	fp,sp,60
 5041d14:	2011883a 	mov	r8,r4
 5041d18:	3009883a 	mov	r4,r6
 5041d1c:	3807883a 	mov	r3,r7
 5041d20:	e0800217 	ldw	r2,8(fp)
 5041d24:	e23ffb0d 	sth	r8,-20(fp)
 5041d28:	e17ffc0d 	sth	r5,-16(fp)
 5041d2c:	e13ffd0d 	sth	r4,-12(fp)
 5041d30:	e0fffe0d 	sth	r3,-8(fp)
 5041d34:	e0bfff0d 	sth	r2,-4(fp)
  // Find the vertical and horizontal distance between the two points
  int horiz_delta = abs(horiz_end-horiz_start);
 5041d38:	e0fffd0b 	ldhu	r3,-12(fp)
 5041d3c:	e0bffb0b 	ldhu	r2,-20(fp)
 5041d40:	1885c83a 	sub	r2,r3,r2
 5041d44:	1000010e 	bge	r2,zero,5041d4c <vid_draw_sloped_line+0x48>
 5041d48:	0085c83a 	sub	r2,zero,r2
 5041d4c:	e0bff115 	stw	r2,-60(fp)
  int vert_delta = abs(vert_end-vert_start);
 5041d50:	e0fffe0b 	ldhu	r3,-8(fp)
 5041d54:	e0bffc0b 	ldhu	r2,-16(fp)
 5041d58:	1885c83a 	sub	r2,r3,r2
 5041d5c:	1000010e 	bge	r2,zero,5041d64 <vid_draw_sloped_line+0x60>
 5041d60:	0085c83a 	sub	r2,zero,r2
 5041d64:	e0bff215 	stw	r2,-56(fp)

  // Find out what direction we are going
  int horiz_incr, vert_incr;
  if (horiz_start > horiz_end) { horiz_incr=-1; } else { horiz_incr=1; }
 5041d68:	e0bffb0b 	ldhu	r2,-20(fp)
 5041d6c:	e0fffd0b 	ldhu	r3,-12(fp)
 5041d70:	1880032e 	bgeu	r3,r2,5041d80 <vid_draw_sloped_line+0x7c>
 5041d74:	00bfffc4 	movi	r2,-1
 5041d78:	e0bff315 	stw	r2,-52(fp)
 5041d7c:	00000206 	br	5041d88 <vid_draw_sloped_line+0x84>
 5041d80:	00800044 	movi	r2,1
 5041d84:	e0bff315 	stw	r2,-52(fp)
  if (vert_start > vert_end) { vert_incr=-1; } else { vert_incr=1; }
 5041d88:	e0bffc0b 	ldhu	r2,-16(fp)
 5041d8c:	e0fffe0b 	ldhu	r3,-8(fp)
 5041d90:	1880032e 	bgeu	r3,r2,5041da0 <vid_draw_sloped_line+0x9c>
 5041d94:	00bfffc4 	movi	r2,-1
 5041d98:	e0bff415 	stw	r2,-48(fp)
 5041d9c:	00000206 	br	5041da8 <vid_draw_sloped_line+0xa4>
 5041da0:	00800044 	movi	r2,1
 5041da4:	e0bff415 	stw	r2,-48(fp)

  // Find out which axis is always incremented when drawing the line
  // If it's the horizontal axis
  if (horiz_delta >= vert_delta) {
 5041da8:	e0fff117 	ldw	r3,-60(fp)
 5041dac:	e0bff217 	ldw	r2,-56(fp)
 5041db0:	18803616 	blt	r3,r2,5041e8c <vid_draw_sloped_line+0x188>
    int dPr   = vert_delta<<1;
 5041db4:	e0bff217 	ldw	r2,-56(fp)
 5041db8:	1085883a 	add	r2,r2,r2
 5041dbc:	e0bff715 	stw	r2,-36(fp)
    int dPru  = dPr - (horiz_delta<<1);
 5041dc0:	e0bff117 	ldw	r2,-60(fp)
 5041dc4:	1085883a 	add	r2,r2,r2
 5041dc8:	1007883a 	mov	r3,r2
 5041dcc:	e0bff717 	ldw	r2,-36(fp)
 5041dd0:	10c5c83a 	sub	r2,r2,r3
 5041dd4:	e0bff815 	stw	r2,-32(fp)
    int P     = dPr - horiz_delta;
 5041dd8:	e0fff717 	ldw	r3,-36(fp)
 5041ddc:	e0bff117 	ldw	r2,-60(fp)
 5041de0:	1885c83a 	sub	r2,r3,r2
 5041de4:	e0bff515 	stw	r2,-44(fp)

    // Process the line, one horizontal point at at time
    for (; horiz_delta >= 0; horiz_delta--) {
 5041de8:	00002506 	br	5041e80 <vid_draw_sloped_line+0x17c>
      // plot the pixel
      vid_set_pixel(horiz_start, vert_start, color, display);
 5041dec:	e0bffb0b 	ldhu	r2,-20(fp)
 5041df0:	e0fffc0b 	ldhu	r3,-16(fp)
 5041df4:	e1000317 	ldw	r4,12(fp)
 5041df8:	e1c00417 	ldw	r7,16(fp)
 5041dfc:	200d883a 	mov	r6,r4
 5041e00:	180b883a 	mov	r5,r3
 5041e04:	1009883a 	mov	r4,r2
 5041e08:	50419700 	call	5041970 <vid_set_pixel>
      // If we're moving both up and right
      if (P > 0) {
 5041e0c:	e0bff517 	ldw	r2,-44(fp)
 5041e10:	00800f0e 	bge	zero,r2,5041e50 <vid_draw_sloped_line+0x14c>
        horiz_start+=horiz_incr;
 5041e14:	e0bff317 	ldw	r2,-52(fp)
 5041e18:	1007883a 	mov	r3,r2
 5041e1c:	e0bffb0b 	ldhu	r2,-20(fp)
 5041e20:	1885883a 	add	r2,r3,r2
 5041e24:	e0bffb0d 	sth	r2,-20(fp)
        vert_start+=vert_incr;
 5041e28:	e0bff417 	ldw	r2,-48(fp)
 5041e2c:	1007883a 	mov	r3,r2
 5041e30:	e0bffc0b 	ldhu	r2,-16(fp)
 5041e34:	1885883a 	add	r2,r3,r2
 5041e38:	e0bffc0d 	sth	r2,-16(fp)
        P+=dPru;
 5041e3c:	e0fff517 	ldw	r3,-44(fp)
 5041e40:	e0bff817 	ldw	r2,-32(fp)
 5041e44:	1885883a 	add	r2,r3,r2
 5041e48:	e0bff515 	stw	r2,-44(fp)
 5041e4c:	00000906 	br	5041e74 <vid_draw_sloped_line+0x170>
      } else {
        horiz_start+=horiz_incr;
 5041e50:	e0bff317 	ldw	r2,-52(fp)
 5041e54:	1007883a 	mov	r3,r2
 5041e58:	e0bffb0b 	ldhu	r2,-20(fp)
 5041e5c:	1885883a 	add	r2,r3,r2
 5041e60:	e0bffb0d 	sth	r2,-20(fp)
        P+=dPr;
 5041e64:	e0fff517 	ldw	r3,-44(fp)
 5041e68:	e0bff717 	ldw	r2,-36(fp)
 5041e6c:	1885883a 	add	r2,r3,r2
 5041e70:	e0bff515 	stw	r2,-44(fp)
    int dPr   = vert_delta<<1;
    int dPru  = dPr - (horiz_delta<<1);
    int P     = dPr - horiz_delta;

    // Process the line, one horizontal point at at time
    for (; horiz_delta >= 0; horiz_delta--) {
 5041e74:	e0bff117 	ldw	r2,-60(fp)
 5041e78:	10bfffc4 	addi	r2,r2,-1
 5041e7c:	e0bff115 	stw	r2,-60(fp)
 5041e80:	e0bff117 	ldw	r2,-60(fp)
 5041e84:	103fd90e 	bge	r2,zero,5041dec <_gp+0xfffd6674>
        vert_start+=vert_incr;
        P+=dPr;
      }
    }
  }
}
 5041e88:	00003506 	br	5041f60 <vid_draw_sloped_line+0x25c>
        P+=dPr;
      }
    }
  // If it's the vertical axis
  } else {
    int dPr   = horiz_delta<<1;
 5041e8c:	e0bff117 	ldw	r2,-60(fp)
 5041e90:	1085883a 	add	r2,r2,r2
 5041e94:	e0bff915 	stw	r2,-28(fp)
    int dPru  = dPr - (vert_delta<<1);
 5041e98:	e0bff217 	ldw	r2,-56(fp)
 5041e9c:	1085883a 	add	r2,r2,r2
 5041ea0:	1007883a 	mov	r3,r2
 5041ea4:	e0bff917 	ldw	r2,-28(fp)
 5041ea8:	10c5c83a 	sub	r2,r2,r3
 5041eac:	e0bffa15 	stw	r2,-24(fp)
    int P     = dPr - vert_delta;
 5041eb0:	e0fff917 	ldw	r3,-28(fp)
 5041eb4:	e0bff217 	ldw	r2,-56(fp)
 5041eb8:	1885c83a 	sub	r2,r3,r2
 5041ebc:	e0bff615 	stw	r2,-40(fp)

    // Process the line, one vertical point at at time
    for (; vert_delta>=0; vert_delta--) {
 5041ec0:	00002506 	br	5041f58 <vid_draw_sloped_line+0x254>
      // plot the pixel
      vid_set_pixel(horiz_start, vert_start, color, display);
 5041ec4:	e0bffb0b 	ldhu	r2,-20(fp)
 5041ec8:	e0fffc0b 	ldhu	r3,-16(fp)
 5041ecc:	e1000317 	ldw	r4,12(fp)
 5041ed0:	e1c00417 	ldw	r7,16(fp)
 5041ed4:	200d883a 	mov	r6,r4
 5041ed8:	180b883a 	mov	r5,r3
 5041edc:	1009883a 	mov	r4,r2
 5041ee0:	50419700 	call	5041970 <vid_set_pixel>
      // If we're moving both up and right
      if (P > 0) {
 5041ee4:	e0bff617 	ldw	r2,-40(fp)
 5041ee8:	00800f0e 	bge	zero,r2,5041f28 <vid_draw_sloped_line+0x224>
        horiz_start+=horiz_incr;
 5041eec:	e0bff317 	ldw	r2,-52(fp)
 5041ef0:	1007883a 	mov	r3,r2
 5041ef4:	e0bffb0b 	ldhu	r2,-20(fp)
 5041ef8:	1885883a 	add	r2,r3,r2
 5041efc:	e0bffb0d 	sth	r2,-20(fp)
        vert_start+=vert_incr;
 5041f00:	e0bff417 	ldw	r2,-48(fp)
 5041f04:	1007883a 	mov	r3,r2
 5041f08:	e0bffc0b 	ldhu	r2,-16(fp)
 5041f0c:	1885883a 	add	r2,r3,r2
 5041f10:	e0bffc0d 	sth	r2,-16(fp)
        P+=dPru;
 5041f14:	e0fff617 	ldw	r3,-40(fp)
 5041f18:	e0bffa17 	ldw	r2,-24(fp)
 5041f1c:	1885883a 	add	r2,r3,r2
 5041f20:	e0bff615 	stw	r2,-40(fp)
 5041f24:	00000906 	br	5041f4c <vid_draw_sloped_line+0x248>
      } else {
        vert_start+=vert_incr;
 5041f28:	e0bff417 	ldw	r2,-48(fp)
 5041f2c:	1007883a 	mov	r3,r2
 5041f30:	e0bffc0b 	ldhu	r2,-16(fp)
 5041f34:	1885883a 	add	r2,r3,r2
 5041f38:	e0bffc0d 	sth	r2,-16(fp)
        P+=dPr;
 5041f3c:	e0fff617 	ldw	r3,-40(fp)
 5041f40:	e0bff917 	ldw	r2,-28(fp)
 5041f44:	1885883a 	add	r2,r3,r2
 5041f48:	e0bff615 	stw	r2,-40(fp)
    int dPr   = horiz_delta<<1;
    int dPru  = dPr - (vert_delta<<1);
    int P     = dPr - vert_delta;

    // Process the line, one vertical point at at time
    for (; vert_delta>=0; vert_delta--) {
 5041f4c:	e0bff217 	ldw	r2,-56(fp)
 5041f50:	10bfffc4 	addi	r2,r2,-1
 5041f54:	e0bff215 	stw	r2,-56(fp)
 5041f58:	e0bff217 	ldw	r2,-56(fp)
 5041f5c:	103fd90e 	bge	r2,zero,5041ec4 <_gp+0xfffd674c>
        vert_start+=vert_incr;
        P+=dPr;
      }
    }
  }
}
 5041f60:	0001883a 	nop
 5041f64:	e037883a 	mov	sp,fp
 5041f68:	dfc00117 	ldw	ra,4(sp)
 5041f6c:	df000017 	ldw	fp,0(sp)
 5041f70:	dec00204 	addi	sp,sp,8
 5041f74:	f800283a 	ret

05041f78 <vid_draw_circle>:
*  tells the function whether or not to fill in the box.  1 = fill,
*  0 = do not fill.
*
******************************************************************/
int vid_draw_circle(int Hcenter, int Vcenter, int radius, int color, char fill, alt_video_display* display)
{
 5041f78:	defff104 	addi	sp,sp,-60
 5041f7c:	dfc00e15 	stw	ra,56(sp)
 5041f80:	df000d15 	stw	fp,52(sp)
 5041f84:	df000d04 	addi	fp,sp,52
 5041f88:	e13ffb15 	stw	r4,-20(fp)
 5041f8c:	e17ffc15 	stw	r5,-16(fp)
 5041f90:	e1bffd15 	stw	r6,-12(fp)
 5041f94:	e1fffe15 	stw	r7,-8(fp)
 5041f98:	e0800217 	ldw	r2,8(fp)
 5041f9c:	e0bfff05 	stb	r2,-4(fp)
  int x = 0;
 5041fa0:	e03ff815 	stw	zero,-32(fp)
  int y = radius;
 5041fa4:	e0bffd17 	ldw	r2,-12(fp)
 5041fa8:	e0bff915 	stw	r2,-28(fp)
  int p = (5 - radius*4)/4;
 5041fac:	e0bffd17 	ldw	r2,-12(fp)
 5041fb0:	1085883a 	add	r2,r2,r2
 5041fb4:	1085883a 	add	r2,r2,r2
 5041fb8:	1007883a 	mov	r3,r2
 5041fbc:	00800144 	movi	r2,5
 5041fc0:	10c5c83a 	sub	r2,r2,r3
 5041fc4:	1000010e 	bge	r2,zero,5041fcc <vid_draw_circle+0x54>
 5041fc8:	108000c4 	addi	r2,r2,3
 5041fcc:	1005d0ba 	srai	r2,r2,2
 5041fd0:	e0bffa15 	stw	r2,-24(fp)

  // Start the circle with the top, bottom, left, and right pixels.
  vid_round_corner_points(Hcenter, Vcenter, x, y, 0, 0, color, fill, display);
 5041fd4:	e0bfff07 	ldb	r2,-4(fp)
 5041fd8:	e0c00317 	ldw	r3,12(fp)
 5041fdc:	d8c00415 	stw	r3,16(sp)
 5041fe0:	d8800315 	stw	r2,12(sp)
 5041fe4:	e0bffe17 	ldw	r2,-8(fp)
 5041fe8:	d8800215 	stw	r2,8(sp)
 5041fec:	d8000115 	stw	zero,4(sp)
 5041ff0:	d8000015 	stw	zero,0(sp)
 5041ff4:	e1fff917 	ldw	r7,-28(fp)
 5041ff8:	e1bff817 	ldw	r6,-32(fp)
 5041ffc:	e17ffc17 	ldw	r5,-16(fp)
 5042000:	e13ffb17 	ldw	r4,-20(fp)
 5042004:	504247c0 	call	504247c <vid_round_corner_points>

  // Now start moving out from those points until the lines meet
  while (x < y) {
 5042008:	00002406 	br	504209c <vid_draw_circle+0x124>
    x++;
 504200c:	e0bff817 	ldw	r2,-32(fp)
 5042010:	10800044 	addi	r2,r2,1
 5042014:	e0bff815 	stw	r2,-32(fp)
    if (p < 0) {
 5042018:	e0bffa17 	ldw	r2,-24(fp)
 504201c:	1000070e 	bge	r2,zero,504203c <vid_draw_circle+0xc4>
      p += 2*x+1;
 5042020:	e0bff817 	ldw	r2,-32(fp)
 5042024:	1085883a 	add	r2,r2,r2
 5042028:	10800044 	addi	r2,r2,1
 504202c:	e0fffa17 	ldw	r3,-24(fp)
 5042030:	1885883a 	add	r2,r3,r2
 5042034:	e0bffa15 	stw	r2,-24(fp)
 5042038:	00000b06 	br	5042068 <vid_draw_circle+0xf0>
    } else {
      y--;
 504203c:	e0bff917 	ldw	r2,-28(fp)
 5042040:	10bfffc4 	addi	r2,r2,-1
 5042044:	e0bff915 	stw	r2,-28(fp)
      p += 2*(x-y)+1;
 5042048:	e0fff817 	ldw	r3,-32(fp)
 504204c:	e0bff917 	ldw	r2,-28(fp)
 5042050:	1885c83a 	sub	r2,r3,r2
 5042054:	1085883a 	add	r2,r2,r2
 5042058:	10800044 	addi	r2,r2,1
 504205c:	e0fffa17 	ldw	r3,-24(fp)
 5042060:	1885883a 	add	r2,r3,r2
 5042064:	e0bffa15 	stw	r2,-24(fp)
    }
    vid_round_corner_points(Hcenter, Vcenter, x, y, 0, 0, color, fill, display);
 5042068:	e0bfff07 	ldb	r2,-4(fp)
 504206c:	e0c00317 	ldw	r3,12(fp)
 5042070:	d8c00415 	stw	r3,16(sp)
 5042074:	d8800315 	stw	r2,12(sp)
 5042078:	e0bffe17 	ldw	r2,-8(fp)
 504207c:	d8800215 	stw	r2,8(sp)
 5042080:	d8000115 	stw	zero,4(sp)
 5042084:	d8000015 	stw	zero,0(sp)
 5042088:	e1fff917 	ldw	r7,-28(fp)
 504208c:	e1bff817 	ldw	r6,-32(fp)
 5042090:	e17ffc17 	ldw	r5,-16(fp)
 5042094:	e13ffb17 	ldw	r4,-20(fp)
 5042098:	504247c0 	call	504247c <vid_round_corner_points>

  // Start the circle with the top, bottom, left, and right pixels.
  vid_round_corner_points(Hcenter, Vcenter, x, y, 0, 0, color, fill, display);

  // Now start moving out from those points until the lines meet
  while (x < y) {
 504209c:	e0fff817 	ldw	r3,-32(fp)
 50420a0:	e0bff917 	ldw	r2,-28(fp)
 50420a4:	18bfd916 	blt	r3,r2,504200c <_gp+0xfffd6894>
      y--;
      p += 2*(x-y)+1;
    }
    vid_round_corner_points(Hcenter, Vcenter, x, y, 0, 0, color, fill, display);
  }
  return (0);
 50420a8:	0005883a 	mov	r2,zero
}
 50420ac:	e037883a 	mov	sp,fp
 50420b0:	dfc00117 	ldw	ra,4(sp)
 50420b4:	df000017 	ldw	fp,0(sp)
 50420b8:	dec00204 	addi	sp,sp,8
 50420bc:	f800283a 	ret

050420c0 <vid_draw_round_corner_box>:
*  to fill in the box.  1 = fill, 0 = do not fill.
*
******************************************************************/
int vid_draw_round_corner_box ( int horiz_start, int vert_start, int horiz_end, int vert_end, 
                                int radius, int color, int fill, alt_video_display* display)
{
 50420c0:	deffec04 	addi	sp,sp,-80
 50420c4:	dfc01315 	stw	ra,76(sp)
 50420c8:	df001215 	stw	fp,72(sp)
 50420cc:	df001204 	addi	fp,sp,72
 50420d0:	e13ffc15 	stw	r4,-16(fp)
 50420d4:	e17ffd15 	stw	r5,-12(fp)
 50420d8:	e1bffe15 	stw	r6,-8(fp)
 50420dc:	e1ffff15 	stw	r7,-4(fp)
  int diameter;
  int temp;
  unsigned int width, height, straight_width, straight_height;

  // Make sure the start point us up and left of the end point
  if( horiz_start > horiz_end )
 50420e0:	e0bffc17 	ldw	r2,-16(fp)
 50420e4:	e0fffe17 	ldw	r3,-8(fp)
 50420e8:	1880060e 	bge	r3,r2,5042104 <vid_draw_round_corner_box+0x44>
  {
    temp = horiz_end;
 50420ec:	e0bffe17 	ldw	r2,-8(fp)
 50420f0:	e0bff615 	stw	r2,-40(fp)
    horiz_end = horiz_start;
 50420f4:	e0bffc17 	ldw	r2,-16(fp)
 50420f8:	e0bffe15 	stw	r2,-8(fp)
    horiz_start = temp;
 50420fc:	e0bff617 	ldw	r2,-40(fp)
 5042100:	e0bffc15 	stw	r2,-16(fp)
  }
  
  if( vert_start > vert_end )
 5042104:	e0bffd17 	ldw	r2,-12(fp)
 5042108:	e0ffff17 	ldw	r3,-4(fp)
 504210c:	1880060e 	bge	r3,r2,5042128 <vid_draw_round_corner_box+0x68>
  {
    temp = vert_end;
 5042110:	e0bfff17 	ldw	r2,-4(fp)
 5042114:	e0bff615 	stw	r2,-40(fp)
    vert_end = vert_start;
 5042118:	e0bffd17 	ldw	r2,-12(fp)
 504211c:	e0bfff15 	stw	r2,-4(fp)
    vert_start = temp;
 5042120:	e0bff617 	ldw	r2,-40(fp)
 5042124:	e0bffd15 	stw	r2,-12(fp)
  }
  
  // These are the overall dimensions of the box
  width = horiz_end - horiz_start;
 5042128:	e0fffe17 	ldw	r3,-8(fp)
 504212c:	e0bffc17 	ldw	r2,-16(fp)
 5042130:	1885c83a 	sub	r2,r3,r2
 5042134:	e0bff715 	stw	r2,-36(fp)
  height = vert_end - vert_start;
 5042138:	e0ffff17 	ldw	r3,-4(fp)
 504213c:	e0bffd17 	ldw	r2,-12(fp)
 5042140:	1885c83a 	sub	r2,r3,r2
 5042144:	e0bff815 	stw	r2,-32(fp)

  // Make sure our radius isnt more than the shortest dimension 
  // of the box, or it'll screw us all up
  if( radius > ( width / 2 ))
 5042148:	e0bff717 	ldw	r2,-36(fp)
 504214c:	1006d07a 	srli	r3,r2,1
 5042150:	e0800217 	ldw	r2,8(fp)
 5042154:	1880032e 	bgeu	r3,r2,5042164 <vid_draw_round_corner_box+0xa4>
    radius = width / 2;
 5042158:	e0bff717 	ldw	r2,-36(fp)
 504215c:	1004d07a 	srli	r2,r2,1
 5042160:	e0800215 	stw	r2,8(fp)

  if( radius > ( height / 2 ))
 5042164:	e0bff817 	ldw	r2,-32(fp)
 5042168:	1006d07a 	srli	r3,r2,1
 504216c:	e0800217 	ldw	r2,8(fp)
 5042170:	1880032e 	bgeu	r3,r2,5042180 <vid_draw_round_corner_box+0xc0>
    radius = height / 2;
 5042174:	e0bff817 	ldw	r2,-32(fp)
 5042178:	1004d07a 	srli	r2,r2,1
 504217c:	e0800215 	stw	r2,8(fp)
  
  // We use the diameter for some calculations, so we'll pre calculate it here.
  diameter = ( radius * 2 );
 5042180:	e0800217 	ldw	r2,8(fp)
 5042184:	1085883a 	add	r2,r2,r2
 5042188:	e0bff915 	stw	r2,-28(fp)

  // These are the lengths of the straight portions of the box edges.
  straight_width = width - diameter;
 504218c:	e0bff917 	ldw	r2,-28(fp)
 5042190:	e0fff717 	ldw	r3,-36(fp)
 5042194:	1885c83a 	sub	r2,r3,r2
 5042198:	e0bffa15 	stw	r2,-24(fp)
  straight_height = height - diameter;
 504219c:	e0bff917 	ldw	r2,-28(fp)
 50421a0:	e0fff817 	ldw	r3,-32(fp)
 50421a4:	1885c83a 	sub	r2,r3,r2
 50421a8:	e0bffb15 	stw	r2,-20(fp)

  x = 0;
 50421ac:	e03ff315 	stw	zero,-52(fp)
  y = radius;
 50421b0:	e0800217 	ldw	r2,8(fp)
 50421b4:	e0bff415 	stw	r2,-48(fp)
  p = (5 - radius*4)/4;
 50421b8:	e0800217 	ldw	r2,8(fp)
 50421bc:	1085883a 	add	r2,r2,r2
 50421c0:	1085883a 	add	r2,r2,r2
 50421c4:	1007883a 	mov	r3,r2
 50421c8:	00800144 	movi	r2,5
 50421cc:	10c5c83a 	sub	r2,r2,r3
 50421d0:	1000010e 	bge	r2,zero,50421d8 <vid_draw_round_corner_box+0x118>
 50421d4:	108000c4 	addi	r2,r2,3
 50421d8:	1005d0ba 	srai	r2,r2,2
 50421dc:	e0bff515 	stw	r2,-44(fp)
   
  // Start the corners with the top, bottom, left, and right pixels.
  vid_round_corner_points( horiz_start + radius, vert_start + radius, x, y, 
 50421e0:	e0fffc17 	ldw	r3,-16(fp)
 50421e4:	e0800217 	ldw	r2,8(fp)
 50421e8:	1891883a 	add	r8,r3,r2
 50421ec:	e0fffd17 	ldw	r3,-12(fp)
 50421f0:	e0800217 	ldw	r2,8(fp)
 50421f4:	1893883a 	add	r9,r3,r2
 50421f8:	e1bff317 	ldw	r6,-52(fp)
 50421fc:	e1fff417 	ldw	r7,-48(fp)
 5042200:	e0bffa17 	ldw	r2,-24(fp)
 5042204:	e0fffb17 	ldw	r3,-20(fp)
 5042208:	e1000417 	ldw	r4,16(fp)
 504220c:	21003fcc 	andi	r4,r4,255
 5042210:	2100201c 	xori	r4,r4,128
 5042214:	213fe004 	addi	r4,r4,-128
 5042218:	e1400517 	ldw	r5,20(fp)
 504221c:	d9400415 	stw	r5,16(sp)
 5042220:	d9000315 	stw	r4,12(sp)
 5042224:	e1000317 	ldw	r4,12(fp)
 5042228:	d9000215 	stw	r4,8(sp)
 504222c:	d8c00115 	stw	r3,4(sp)
 5042230:	d8800015 	stw	r2,0(sp)
 5042234:	480b883a 	mov	r5,r9
 5042238:	4009883a 	mov	r4,r8
 504223c:	504247c0 	call	504247c <vid_round_corner_points>
                           straight_width, straight_height, color, fill, display );
  
  // Now start moving out from those points until the lines meet
  while (x < y) {
 5042240:	00003106 	br	5042308 <vid_draw_round_corner_box+0x248>
    x++;
 5042244:	e0bff317 	ldw	r2,-52(fp)
 5042248:	10800044 	addi	r2,r2,1
 504224c:	e0bff315 	stw	r2,-52(fp)
    if (p < 0) {
 5042250:	e0bff517 	ldw	r2,-44(fp)
 5042254:	1000080e 	bge	r2,zero,5042278 <vid_draw_round_corner_box+0x1b8>
      p += 2*x+1;
 5042258:	e0bff317 	ldw	r2,-52(fp)
 504225c:	1085883a 	add	r2,r2,r2
 5042260:	1007883a 	mov	r3,r2
 5042264:	e0bff517 	ldw	r2,-44(fp)
 5042268:	1885883a 	add	r2,r3,r2
 504226c:	10800044 	addi	r2,r2,1
 5042270:	e0bff515 	stw	r2,-44(fp)
 5042274:	00000c06 	br	50422a8 <vid_draw_round_corner_box+0x1e8>
    } else {
      y--;
 5042278:	e0bff417 	ldw	r2,-48(fp)
 504227c:	10bfffc4 	addi	r2,r2,-1
 5042280:	e0bff415 	stw	r2,-48(fp)
      p += 2*(x-y)+1;
 5042284:	e0fff317 	ldw	r3,-52(fp)
 5042288:	e0bff417 	ldw	r2,-48(fp)
 504228c:	1885c83a 	sub	r2,r3,r2
 5042290:	1085883a 	add	r2,r2,r2
 5042294:	1007883a 	mov	r3,r2
 5042298:	e0bff517 	ldw	r2,-44(fp)
 504229c:	1885883a 	add	r2,r3,r2
 50422a0:	10800044 	addi	r2,r2,1
 50422a4:	e0bff515 	stw	r2,-44(fp)
    }
    vid_round_corner_points( horiz_start + radius, vert_start + radius, x, y, 
 50422a8:	e0fffc17 	ldw	r3,-16(fp)
 50422ac:	e0800217 	ldw	r2,8(fp)
 50422b0:	1891883a 	add	r8,r3,r2
 50422b4:	e0fffd17 	ldw	r3,-12(fp)
 50422b8:	e0800217 	ldw	r2,8(fp)
 50422bc:	1893883a 	add	r9,r3,r2
 50422c0:	e1bff317 	ldw	r6,-52(fp)
 50422c4:	e1fff417 	ldw	r7,-48(fp)
 50422c8:	e0bffa17 	ldw	r2,-24(fp)
 50422cc:	e0fffb17 	ldw	r3,-20(fp)
 50422d0:	e1000417 	ldw	r4,16(fp)
 50422d4:	21003fcc 	andi	r4,r4,255
 50422d8:	2100201c 	xori	r4,r4,128
 50422dc:	213fe004 	addi	r4,r4,-128
 50422e0:	e1400517 	ldw	r5,20(fp)
 50422e4:	d9400415 	stw	r5,16(sp)
 50422e8:	d9000315 	stw	r4,12(sp)
 50422ec:	e1000317 	ldw	r4,12(fp)
 50422f0:	d9000215 	stw	r4,8(sp)
 50422f4:	d8c00115 	stw	r3,4(sp)
 50422f8:	d8800015 	stw	r2,0(sp)
 50422fc:	480b883a 	mov	r5,r9
 5042300:	4009883a 	mov	r4,r8
 5042304:	504247c0 	call	504247c <vid_round_corner_points>
  // Start the corners with the top, bottom, left, and right pixels.
  vid_round_corner_points( horiz_start + radius, vert_start + radius, x, y, 
                           straight_width, straight_height, color, fill, display );
  
  // Now start moving out from those points until the lines meet
  while (x < y) {
 5042308:	e0fff317 	ldw	r3,-52(fp)
 504230c:	e0bff417 	ldw	r2,-48(fp)
 5042310:	18bfcc36 	bltu	r3,r2,5042244 <_gp+0xfffd6acc>
    vid_round_corner_points( horiz_start + radius, vert_start + radius, x, y, 
                             straight_width, straight_height, color, fill, display);
  }

  // If we want to fill in our box
  if (fill) {
 5042314:	e0800417 	ldw	r2,16(fp)
 5042318:	10001026 	beq	r2,zero,504235c <vid_draw_round_corner_box+0x29c>
     vid_paint_block (horiz_start, vert_start + radius, horiz_end, vert_end - radius, color, display);
 504231c:	e0fffd17 	ldw	r3,-12(fp)
 5042320:	e0800217 	ldw	r2,8(fp)
 5042324:	1889883a 	add	r4,r3,r2
 5042328:	e0ffff17 	ldw	r3,-4(fp)
 504232c:	e0800217 	ldw	r2,8(fp)
 5042330:	1887c83a 	sub	r3,r3,r2
 5042334:	e0800517 	ldw	r2,20(fp)
 5042338:	d8800115 	stw	r2,4(sp)
 504233c:	e0800317 	ldw	r2,12(fp)
 5042340:	d8800015 	stw	r2,0(sp)
 5042344:	180f883a 	mov	r7,r3
 5042348:	e1bffe17 	ldw	r6,-8(fp)
 504234c:	200b883a 	mov	r5,r4
 5042350:	e13ffc17 	ldw	r4,-16(fp)
 5042354:	5041a540 	call	5041a54 <vid_paint_block>
 5042358:	00004206 	br	5042464 <vid_draw_round_corner_box+0x3a4>
  // If we're not filling in the box, just draw four lines.
  } else {
    vid_draw_line(horiz_start, vert_start + radius, horiz_start, vert_end - radius , 1, color, display); //left
 504235c:	e0fffd17 	ldw	r3,-12(fp)
 5042360:	e0800217 	ldw	r2,8(fp)
 5042364:	1889883a 	add	r4,r3,r2
 5042368:	e0ffff17 	ldw	r3,-4(fp)
 504236c:	e0800217 	ldw	r2,8(fp)
 5042370:	1887c83a 	sub	r3,r3,r2
 5042374:	e0800517 	ldw	r2,20(fp)
 5042378:	d8800215 	stw	r2,8(sp)
 504237c:	e0800317 	ldw	r2,12(fp)
 5042380:	d8800115 	stw	r2,4(sp)
 5042384:	00800044 	movi	r2,1
 5042388:	d8800015 	stw	r2,0(sp)
 504238c:	180f883a 	mov	r7,r3
 5042390:	e1bffc17 	ldw	r6,-16(fp)
 5042394:	200b883a 	mov	r5,r4
 5042398:	e13ffc17 	ldw	r4,-16(fp)
 504239c:	5040f480 	call	5040f48 <vid_draw_line>
    vid_draw_line(horiz_end, vert_start + radius, horiz_end, vert_end - radius , 1, color, display); //right
 50423a0:	e0fffd17 	ldw	r3,-12(fp)
 50423a4:	e0800217 	ldw	r2,8(fp)
 50423a8:	1889883a 	add	r4,r3,r2
 50423ac:	e0ffff17 	ldw	r3,-4(fp)
 50423b0:	e0800217 	ldw	r2,8(fp)
 50423b4:	1887c83a 	sub	r3,r3,r2
 50423b8:	e0800517 	ldw	r2,20(fp)
 50423bc:	d8800215 	stw	r2,8(sp)
 50423c0:	e0800317 	ldw	r2,12(fp)
 50423c4:	d8800115 	stw	r2,4(sp)
 50423c8:	00800044 	movi	r2,1
 50423cc:	d8800015 	stw	r2,0(sp)
 50423d0:	180f883a 	mov	r7,r3
 50423d4:	e1bffe17 	ldw	r6,-8(fp)
 50423d8:	200b883a 	mov	r5,r4
 50423dc:	e13ffe17 	ldw	r4,-8(fp)
 50423e0:	5040f480 	call	5040f48 <vid_draw_line>
    vid_draw_line(horiz_start + radius, vert_start, horiz_end - radius , vert_start, 1, color, display); //top
 50423e4:	e0fffc17 	ldw	r3,-16(fp)
 50423e8:	e0800217 	ldw	r2,8(fp)
 50423ec:	1889883a 	add	r4,r3,r2
 50423f0:	e0fffe17 	ldw	r3,-8(fp)
 50423f4:	e0800217 	ldw	r2,8(fp)
 50423f8:	1887c83a 	sub	r3,r3,r2
 50423fc:	e0800517 	ldw	r2,20(fp)
 5042400:	d8800215 	stw	r2,8(sp)
 5042404:	e0800317 	ldw	r2,12(fp)
 5042408:	d8800115 	stw	r2,4(sp)
 504240c:	00800044 	movi	r2,1
 5042410:	d8800015 	stw	r2,0(sp)
 5042414:	e1fffd17 	ldw	r7,-12(fp)
 5042418:	180d883a 	mov	r6,r3
 504241c:	e17ffd17 	ldw	r5,-12(fp)
 5042420:	5040f480 	call	5040f48 <vid_draw_line>
    vid_draw_line(horiz_start + radius, vert_end, horiz_end - radius , vert_end, 1, color, display); //bottom
 5042424:	e0fffc17 	ldw	r3,-16(fp)
 5042428:	e0800217 	ldw	r2,8(fp)
 504242c:	1889883a 	add	r4,r3,r2
 5042430:	e0fffe17 	ldw	r3,-8(fp)
 5042434:	e0800217 	ldw	r2,8(fp)
 5042438:	1887c83a 	sub	r3,r3,r2
 504243c:	e0800517 	ldw	r2,20(fp)
 5042440:	d8800215 	stw	r2,8(sp)
 5042444:	e0800317 	ldw	r2,12(fp)
 5042448:	d8800115 	stw	r2,4(sp)
 504244c:	00800044 	movi	r2,1
 5042450:	d8800015 	stw	r2,0(sp)
 5042454:	e1ffff17 	ldw	r7,-4(fp)
 5042458:	180d883a 	mov	r6,r3
 504245c:	e17fff17 	ldw	r5,-4(fp)
 5042460:	5040f480 	call	5040f48 <vid_draw_line>
  }

  return (0);
 5042464:	0005883a 	mov	r2,zero
}
 5042468:	e037883a 	mov	sp,fp
 504246c:	dfc00117 	ldw	ra,4(sp)
 5042470:	df000017 	ldw	fp,0(sp)
 5042474:	dec00204 	addi	sp,sp,8
 5042478:	f800283a 	ret

0504247c <vid_round_corner_points>:
******************************************************************/

void vid_round_corner_points( int cx, int cy, int x, int y, 
                              int straight_width, int straight_height, int color, 
                              char fill, alt_video_display* display)
{
 504247c:	defff604 	addi	sp,sp,-40
 5042480:	dfc00915 	stw	ra,36(sp)
 5042484:	df000815 	stw	fp,32(sp)
 5042488:	df000804 	addi	fp,sp,32
 504248c:	e13ffb15 	stw	r4,-20(fp)
 5042490:	e17ffc15 	stw	r5,-16(fp)
 5042494:	e1bffd15 	stw	r6,-12(fp)
 5042498:	e1fffe15 	stw	r7,-8(fp)
 504249c:	e0800517 	ldw	r2,20(fp)
 50424a0:	e0bfff05 	stb	r2,-4(fp)

    // If we're directly above, below, left and right of center (0 degrees), plot those 4 pixels
    if (x == 0) {
 50424a4:	e0bffd17 	ldw	r2,-12(fp)
 50424a8:	1000841e 	bne	r2,zero,50426bc <vid_round_corner_points+0x240>
        // bottom
        vid_set_pixel(cx, cy + y + straight_height, color, display);
 50424ac:	e0fffc17 	ldw	r3,-16(fp)
 50424b0:	e0bffe17 	ldw	r2,-8(fp)
 50424b4:	1887883a 	add	r3,r3,r2
 50424b8:	e0800317 	ldw	r2,12(fp)
 50424bc:	1885883a 	add	r2,r3,r2
 50424c0:	e0c00417 	ldw	r3,16(fp)
 50424c4:	e1c00617 	ldw	r7,24(fp)
 50424c8:	180d883a 	mov	r6,r3
 50424cc:	100b883a 	mov	r5,r2
 50424d0:	e13ffb17 	ldw	r4,-20(fp)
 50424d4:	50419700 	call	5041970 <vid_set_pixel>
        vid_set_pixel(cx + straight_width, cy + y + straight_height, color, display);
 50424d8:	e0fffb17 	ldw	r3,-20(fp)
 50424dc:	e0800217 	ldw	r2,8(fp)
 50424e0:	1889883a 	add	r4,r3,r2
 50424e4:	e0fffc17 	ldw	r3,-16(fp)
 50424e8:	e0bffe17 	ldw	r2,-8(fp)
 50424ec:	1887883a 	add	r3,r3,r2
 50424f0:	e0800317 	ldw	r2,12(fp)
 50424f4:	1885883a 	add	r2,r3,r2
 50424f8:	e0c00417 	ldw	r3,16(fp)
 50424fc:	e1c00617 	ldw	r7,24(fp)
 5042500:	180d883a 	mov	r6,r3
 5042504:	100b883a 	mov	r5,r2
 5042508:	50419700 	call	5041970 <vid_set_pixel>
        // top
        vid_set_pixel(cx, cy - y, color, display);
 504250c:	e0fffc17 	ldw	r3,-16(fp)
 5042510:	e0bffe17 	ldw	r2,-8(fp)
 5042514:	1885c83a 	sub	r2,r3,r2
 5042518:	e0c00417 	ldw	r3,16(fp)
 504251c:	e1c00617 	ldw	r7,24(fp)
 5042520:	180d883a 	mov	r6,r3
 5042524:	100b883a 	mov	r5,r2
 5042528:	e13ffb17 	ldw	r4,-20(fp)
 504252c:	50419700 	call	5041970 <vid_set_pixel>
        vid_set_pixel(cx + straight_width, cy - y, color, display);
 5042530:	e0fffb17 	ldw	r3,-20(fp)
 5042534:	e0800217 	ldw	r2,8(fp)
 5042538:	1889883a 	add	r4,r3,r2
 504253c:	e0fffc17 	ldw	r3,-16(fp)
 5042540:	e0bffe17 	ldw	r2,-8(fp)
 5042544:	1885c83a 	sub	r2,r3,r2
 5042548:	e0c00417 	ldw	r3,16(fp)
 504254c:	e1c00617 	ldw	r7,24(fp)
 5042550:	180d883a 	mov	r6,r3
 5042554:	100b883a 	mov	r5,r2
 5042558:	50419700 	call	5041970 <vid_set_pixel>

        if(fill) {
 504255c:	e0bfff07 	ldb	r2,-4(fp)
 5042560:	10002926 	beq	r2,zero,5042608 <vid_round_corner_points+0x18c>
          vid_draw_line(cx - y, cy, cx + y + straight_width, cy, 1, color, display);
 5042564:	e0fffb17 	ldw	r3,-20(fp)
 5042568:	e0bffe17 	ldw	r2,-8(fp)
 504256c:	1889c83a 	sub	r4,r3,r2
 5042570:	e0fffb17 	ldw	r3,-20(fp)
 5042574:	e0bffe17 	ldw	r2,-8(fp)
 5042578:	1887883a 	add	r3,r3,r2
 504257c:	e0800217 	ldw	r2,8(fp)
 5042580:	1887883a 	add	r3,r3,r2
 5042584:	e0800617 	ldw	r2,24(fp)
 5042588:	d8800215 	stw	r2,8(sp)
 504258c:	e0800417 	ldw	r2,16(fp)
 5042590:	d8800115 	stw	r2,4(sp)
 5042594:	00800044 	movi	r2,1
 5042598:	d8800015 	stw	r2,0(sp)
 504259c:	e1fffc17 	ldw	r7,-16(fp)
 50425a0:	180d883a 	mov	r6,r3
 50425a4:	e17ffc17 	ldw	r5,-16(fp)
 50425a8:	5040f480 	call	5040f48 <vid_draw_line>
          vid_draw_line(cx - y, cy + straight_height, cx + y + straight_width, cy + straight_height, 1, color, display);
 50425ac:	e0fffb17 	ldw	r3,-20(fp)
 50425b0:	e0bffe17 	ldw	r2,-8(fp)
 50425b4:	1889c83a 	sub	r4,r3,r2
 50425b8:	e0fffc17 	ldw	r3,-16(fp)
 50425bc:	e0800317 	ldw	r2,12(fp)
 50425c0:	188b883a 	add	r5,r3,r2
 50425c4:	e0fffb17 	ldw	r3,-20(fp)
 50425c8:	e0bffe17 	ldw	r2,-8(fp)
 50425cc:	1887883a 	add	r3,r3,r2
 50425d0:	e0800217 	ldw	r2,8(fp)
 50425d4:	188d883a 	add	r6,r3,r2
 50425d8:	e0fffc17 	ldw	r3,-16(fp)
 50425dc:	e0800317 	ldw	r2,12(fp)
 50425e0:	1887883a 	add	r3,r3,r2
 50425e4:	e0800617 	ldw	r2,24(fp)
 50425e8:	d8800215 	stw	r2,8(sp)
 50425ec:	e0800417 	ldw	r2,16(fp)
 50425f0:	d8800115 	stw	r2,4(sp)
 50425f4:	00800044 	movi	r2,1
 50425f8:	d8800015 	stw	r2,0(sp)
 50425fc:	180f883a 	mov	r7,r3
 5042600:	5040f480 	call	5040f48 <vid_draw_line>
          vid_set_pixel(cx - y, cy + x + straight_height, color, display);
          vid_set_pixel(cx + y + straight_width, cy - x, color, display);
          vid_set_pixel(cx - y, cy - x, color, display);
        }
    }
}
 5042604:	00016606 	br	5042ba0 <vid_round_corner_points+0x724>
        if(fill) {
          vid_draw_line(cx - y, cy, cx + y + straight_width, cy, 1, color, display);
          vid_draw_line(cx - y, cy + straight_height, cx + y + straight_width, cy + straight_height, 1, color, display);
        } else {
          //right
          vid_set_pixel(cx + y + straight_width, cy, color, display);
 5042608:	e0fffb17 	ldw	r3,-20(fp)
 504260c:	e0bffe17 	ldw	r2,-8(fp)
 5042610:	1887883a 	add	r3,r3,r2
 5042614:	e0800217 	ldw	r2,8(fp)
 5042618:	1885883a 	add	r2,r3,r2
 504261c:	e0c00417 	ldw	r3,16(fp)
 5042620:	e1c00617 	ldw	r7,24(fp)
 5042624:	180d883a 	mov	r6,r3
 5042628:	e17ffc17 	ldw	r5,-16(fp)
 504262c:	1009883a 	mov	r4,r2
 5042630:	50419700 	call	5041970 <vid_set_pixel>
          vid_set_pixel(cx + y + straight_width, cy + straight_height, color, display);
 5042634:	e0fffb17 	ldw	r3,-20(fp)
 5042638:	e0bffe17 	ldw	r2,-8(fp)
 504263c:	1887883a 	add	r3,r3,r2
 5042640:	e0800217 	ldw	r2,8(fp)
 5042644:	1889883a 	add	r4,r3,r2
 5042648:	e0fffc17 	ldw	r3,-16(fp)
 504264c:	e0800317 	ldw	r2,12(fp)
 5042650:	1885883a 	add	r2,r3,r2
 5042654:	e0c00417 	ldw	r3,16(fp)
 5042658:	e1c00617 	ldw	r7,24(fp)
 504265c:	180d883a 	mov	r6,r3
 5042660:	100b883a 	mov	r5,r2
 5042664:	50419700 	call	5041970 <vid_set_pixel>
          //left
          vid_set_pixel(cx - y, cy, color, display);
 5042668:	e0fffb17 	ldw	r3,-20(fp)
 504266c:	e0bffe17 	ldw	r2,-8(fp)
 5042670:	1885c83a 	sub	r2,r3,r2
 5042674:	e0c00417 	ldw	r3,16(fp)
 5042678:	e1c00617 	ldw	r7,24(fp)
 504267c:	180d883a 	mov	r6,r3
 5042680:	e17ffc17 	ldw	r5,-16(fp)
 5042684:	1009883a 	mov	r4,r2
 5042688:	50419700 	call	5041970 <vid_set_pixel>
          vid_set_pixel(cx - y, cy + straight_height, color, display);
 504268c:	e0fffb17 	ldw	r3,-20(fp)
 5042690:	e0bffe17 	ldw	r2,-8(fp)
 5042694:	1889c83a 	sub	r4,r3,r2
 5042698:	e0fffc17 	ldw	r3,-16(fp)
 504269c:	e0800317 	ldw	r2,12(fp)
 50426a0:	1885883a 	add	r2,r3,r2
 50426a4:	e0c00417 	ldw	r3,16(fp)
 50426a8:	e1c00617 	ldw	r7,24(fp)
 50426ac:	180d883a 	mov	r6,r3
 50426b0:	100b883a 	mov	r5,r2
 50426b4:	50419700 	call	5041970 <vid_set_pixel>
          vid_set_pixel(cx - y, cy + x + straight_height, color, display);
          vid_set_pixel(cx + y + straight_width, cy - x, color, display);
          vid_set_pixel(cx - y, cy - x, color, display);
        }
    }
}
 50426b8:	00013906 	br	5042ba0 <vid_round_corner_points+0x724>
          vid_set_pixel(cx - y, cy + straight_height, color, display);
        }

    } else
    // If we've reached the 45 degree points (x=y), plot those 4 pixels
    if (x == y) {
 50426bc:	e0fffd17 	ldw	r3,-12(fp)
 50426c0:	e0bffe17 	ldw	r2,-8(fp)
 50426c4:	1880681e 	bne	r3,r2,5042868 <vid_round_corner_points+0x3ec>
      if(fill) {
 50426c8:	e0bfff07 	ldb	r2,-4(fp)
 50426cc:	10003126 	beq	r2,zero,5042794 <vid_round_corner_points+0x318>
        vid_draw_line(cx - x, cy + y + straight_height, cx + x + straight_width, cy + y + straight_height, 1, color, display); // lower
 50426d0:	e0fffb17 	ldw	r3,-20(fp)
 50426d4:	e0bffd17 	ldw	r2,-12(fp)
 50426d8:	1889c83a 	sub	r4,r3,r2
 50426dc:	e0fffc17 	ldw	r3,-16(fp)
 50426e0:	e0bffe17 	ldw	r2,-8(fp)
 50426e4:	1887883a 	add	r3,r3,r2
 50426e8:	e0800317 	ldw	r2,12(fp)
 50426ec:	188b883a 	add	r5,r3,r2
 50426f0:	e0fffb17 	ldw	r3,-20(fp)
 50426f4:	e0bffd17 	ldw	r2,-12(fp)
 50426f8:	1887883a 	add	r3,r3,r2
 50426fc:	e0800217 	ldw	r2,8(fp)
 5042700:	188d883a 	add	r6,r3,r2
 5042704:	e0fffc17 	ldw	r3,-16(fp)
 5042708:	e0bffe17 	ldw	r2,-8(fp)
 504270c:	1887883a 	add	r3,r3,r2
 5042710:	e0800317 	ldw	r2,12(fp)
 5042714:	1887883a 	add	r3,r3,r2
 5042718:	e0800617 	ldw	r2,24(fp)
 504271c:	d8800215 	stw	r2,8(sp)
 5042720:	e0800417 	ldw	r2,16(fp)
 5042724:	d8800115 	stw	r2,4(sp)
 5042728:	00800044 	movi	r2,1
 504272c:	d8800015 	stw	r2,0(sp)
 5042730:	180f883a 	mov	r7,r3
 5042734:	5040f480 	call	5040f48 <vid_draw_line>
        vid_draw_line(cx - x, cy - y, cx + x + straight_width, cy - y, 1, color, display); // upper
 5042738:	e0fffb17 	ldw	r3,-20(fp)
 504273c:	e0bffd17 	ldw	r2,-12(fp)
 5042740:	1889c83a 	sub	r4,r3,r2
 5042744:	e0fffc17 	ldw	r3,-16(fp)
 5042748:	e0bffe17 	ldw	r2,-8(fp)
 504274c:	188bc83a 	sub	r5,r3,r2
 5042750:	e0fffb17 	ldw	r3,-20(fp)
 5042754:	e0bffd17 	ldw	r2,-12(fp)
 5042758:	1887883a 	add	r3,r3,r2
 504275c:	e0800217 	ldw	r2,8(fp)
 5042760:	188d883a 	add	r6,r3,r2
 5042764:	e0fffc17 	ldw	r3,-16(fp)
 5042768:	e0bffe17 	ldw	r2,-8(fp)
 504276c:	1887c83a 	sub	r3,r3,r2
 5042770:	e0800617 	ldw	r2,24(fp)
 5042774:	d8800215 	stw	r2,8(sp)
 5042778:	e0800417 	ldw	r2,16(fp)
 504277c:	d8800115 	stw	r2,4(sp)
 5042780:	00800044 	movi	r2,1
 5042784:	d8800015 	stw	r2,0(sp)
 5042788:	180f883a 	mov	r7,r3
 504278c:	5040f480 	call	5040f48 <vid_draw_line>
          vid_set_pixel(cx - y, cy + x + straight_height, color, display);
          vid_set_pixel(cx + y + straight_width, cy - x, color, display);
          vid_set_pixel(cx - y, cy - x, color, display);
        }
    }
}
 5042790:	00010306 	br	5042ba0 <vid_round_corner_points+0x724>
      if(fill) {
        vid_draw_line(cx - x, cy + y + straight_height, cx + x + straight_width, cy + y + straight_height, 1, color, display); // lower
        vid_draw_line(cx - x, cy - y, cx + x + straight_width, cy - y, 1, color, display); // upper
        
      } else {
        vid_set_pixel(cx + x + straight_width, cy + y + straight_height, color, display); // bottom right
 5042794:	e0fffb17 	ldw	r3,-20(fp)
 5042798:	e0bffd17 	ldw	r2,-12(fp)
 504279c:	1887883a 	add	r3,r3,r2
 50427a0:	e0800217 	ldw	r2,8(fp)
 50427a4:	1889883a 	add	r4,r3,r2
 50427a8:	e0fffc17 	ldw	r3,-16(fp)
 50427ac:	e0bffe17 	ldw	r2,-8(fp)
 50427b0:	1887883a 	add	r3,r3,r2
 50427b4:	e0800317 	ldw	r2,12(fp)
 50427b8:	1885883a 	add	r2,r3,r2
 50427bc:	e0c00417 	ldw	r3,16(fp)
 50427c0:	e1c00617 	ldw	r7,24(fp)
 50427c4:	180d883a 	mov	r6,r3
 50427c8:	100b883a 	mov	r5,r2
 50427cc:	50419700 	call	5041970 <vid_set_pixel>
        vid_set_pixel(cx - x, cy + y + straight_height, color, display); // bottom left
 50427d0:	e0fffb17 	ldw	r3,-20(fp)
 50427d4:	e0bffd17 	ldw	r2,-12(fp)
 50427d8:	1889c83a 	sub	r4,r3,r2
 50427dc:	e0fffc17 	ldw	r3,-16(fp)
 50427e0:	e0bffe17 	ldw	r2,-8(fp)
 50427e4:	1887883a 	add	r3,r3,r2
 50427e8:	e0800317 	ldw	r2,12(fp)
 50427ec:	1885883a 	add	r2,r3,r2
 50427f0:	e0c00417 	ldw	r3,16(fp)
 50427f4:	e1c00617 	ldw	r7,24(fp)
 50427f8:	180d883a 	mov	r6,r3
 50427fc:	100b883a 	mov	r5,r2
 5042800:	50419700 	call	5041970 <vid_set_pixel>
        vid_set_pixel(cx + x + straight_width, cy - y, color, display); // top right
 5042804:	e0fffb17 	ldw	r3,-20(fp)
 5042808:	e0bffd17 	ldw	r2,-12(fp)
 504280c:	1887883a 	add	r3,r3,r2
 5042810:	e0800217 	ldw	r2,8(fp)
 5042814:	1889883a 	add	r4,r3,r2
 5042818:	e0fffc17 	ldw	r3,-16(fp)
 504281c:	e0bffe17 	ldw	r2,-8(fp)
 5042820:	1885c83a 	sub	r2,r3,r2
 5042824:	e0c00417 	ldw	r3,16(fp)
 5042828:	e1c00617 	ldw	r7,24(fp)
 504282c:	180d883a 	mov	r6,r3
 5042830:	100b883a 	mov	r5,r2
 5042834:	50419700 	call	5041970 <vid_set_pixel>
        vid_set_pixel(cx - x, cy - y, color, display); // top left
 5042838:	e0fffb17 	ldw	r3,-20(fp)
 504283c:	e0bffd17 	ldw	r2,-12(fp)
 5042840:	1889c83a 	sub	r4,r3,r2
 5042844:	e0fffc17 	ldw	r3,-16(fp)
 5042848:	e0bffe17 	ldw	r2,-8(fp)
 504284c:	1885c83a 	sub	r2,r3,r2
 5042850:	e0c00417 	ldw	r3,16(fp)
 5042854:	e1c00617 	ldw	r7,24(fp)
 5042858:	180d883a 	mov	r6,r3
 504285c:	100b883a 	mov	r5,r2
 5042860:	50419700 	call	5041970 <vid_set_pixel>
          vid_set_pixel(cx - y, cy + x + straight_height, color, display);
          vid_set_pixel(cx + y + straight_width, cy - x, color, display);
          vid_set_pixel(cx - y, cy - x, color, display);
        }
    }
}
 5042864:	0000ce06 	br	5042ba0 <vid_round_corner_points+0x724>
        vid_set_pixel(cx + x + straight_width, cy - y, color, display); // top right
        vid_set_pixel(cx - x, cy - y, color, display); // top left
      }
    } else
    // If we're between 0 and 45 degrees plot 8 pixels.
    if (x < y) {
 5042868:	e0fffd17 	ldw	r3,-12(fp)
 504286c:	e0bffe17 	ldw	r2,-8(fp)
 5042870:	1880cb0e 	bge	r3,r2,5042ba0 <vid_round_corner_points+0x724>
        if(fill) {
 5042874:	e0bfff07 	ldb	r2,-4(fp)
 5042878:	10006126 	beq	r2,zero,5042a00 <vid_round_corner_points+0x584>
          vid_draw_line(cx - x, cy + y + straight_height, cx + x + straight_width, cy + y + straight_height, 1, color, display);
 504287c:	e0fffb17 	ldw	r3,-20(fp)
 5042880:	e0bffd17 	ldw	r2,-12(fp)
 5042884:	1889c83a 	sub	r4,r3,r2
 5042888:	e0fffc17 	ldw	r3,-16(fp)
 504288c:	e0bffe17 	ldw	r2,-8(fp)
 5042890:	1887883a 	add	r3,r3,r2
 5042894:	e0800317 	ldw	r2,12(fp)
 5042898:	188b883a 	add	r5,r3,r2
 504289c:	e0fffb17 	ldw	r3,-20(fp)
 50428a0:	e0bffd17 	ldw	r2,-12(fp)
 50428a4:	1887883a 	add	r3,r3,r2
 50428a8:	e0800217 	ldw	r2,8(fp)
 50428ac:	188d883a 	add	r6,r3,r2
 50428b0:	e0fffc17 	ldw	r3,-16(fp)
 50428b4:	e0bffe17 	ldw	r2,-8(fp)
 50428b8:	1887883a 	add	r3,r3,r2
 50428bc:	e0800317 	ldw	r2,12(fp)
 50428c0:	1887883a 	add	r3,r3,r2
 50428c4:	e0800617 	ldw	r2,24(fp)
 50428c8:	d8800215 	stw	r2,8(sp)
 50428cc:	e0800417 	ldw	r2,16(fp)
 50428d0:	d8800115 	stw	r2,4(sp)
 50428d4:	00800044 	movi	r2,1
 50428d8:	d8800015 	stw	r2,0(sp)
 50428dc:	180f883a 	mov	r7,r3
 50428e0:	5040f480 	call	5040f48 <vid_draw_line>
          vid_draw_line(cx - y, cy + x + straight_height, cx + y + straight_width, cy + x + straight_height, 1, color, display);
 50428e4:	e0fffb17 	ldw	r3,-20(fp)
 50428e8:	e0bffe17 	ldw	r2,-8(fp)
 50428ec:	1889c83a 	sub	r4,r3,r2
 50428f0:	e0fffc17 	ldw	r3,-16(fp)
 50428f4:	e0bffd17 	ldw	r2,-12(fp)
 50428f8:	1887883a 	add	r3,r3,r2
 50428fc:	e0800317 	ldw	r2,12(fp)
 5042900:	188b883a 	add	r5,r3,r2
 5042904:	e0fffb17 	ldw	r3,-20(fp)
 5042908:	e0bffe17 	ldw	r2,-8(fp)
 504290c:	1887883a 	add	r3,r3,r2
 5042910:	e0800217 	ldw	r2,8(fp)
 5042914:	188d883a 	add	r6,r3,r2
 5042918:	e0fffc17 	ldw	r3,-16(fp)
 504291c:	e0bffd17 	ldw	r2,-12(fp)
 5042920:	1887883a 	add	r3,r3,r2
 5042924:	e0800317 	ldw	r2,12(fp)
 5042928:	1887883a 	add	r3,r3,r2
 504292c:	e0800617 	ldw	r2,24(fp)
 5042930:	d8800215 	stw	r2,8(sp)
 5042934:	e0800417 	ldw	r2,16(fp)
 5042938:	d8800115 	stw	r2,4(sp)
 504293c:	00800044 	movi	r2,1
 5042940:	d8800015 	stw	r2,0(sp)
 5042944:	180f883a 	mov	r7,r3
 5042948:	5040f480 	call	5040f48 <vid_draw_line>
          vid_draw_line(cx - y, cy - x, cx + y + straight_width, cy - x, 1, color, display);
 504294c:	e0fffb17 	ldw	r3,-20(fp)
 5042950:	e0bffe17 	ldw	r2,-8(fp)
 5042954:	1889c83a 	sub	r4,r3,r2
 5042958:	e0fffc17 	ldw	r3,-16(fp)
 504295c:	e0bffd17 	ldw	r2,-12(fp)
 5042960:	188bc83a 	sub	r5,r3,r2
 5042964:	e0fffb17 	ldw	r3,-20(fp)
 5042968:	e0bffe17 	ldw	r2,-8(fp)
 504296c:	1887883a 	add	r3,r3,r2
 5042970:	e0800217 	ldw	r2,8(fp)
 5042974:	188d883a 	add	r6,r3,r2
 5042978:	e0fffc17 	ldw	r3,-16(fp)
 504297c:	e0bffd17 	ldw	r2,-12(fp)
 5042980:	1887c83a 	sub	r3,r3,r2
 5042984:	e0800617 	ldw	r2,24(fp)
 5042988:	d8800215 	stw	r2,8(sp)
 504298c:	e0800417 	ldw	r2,16(fp)
 5042990:	d8800115 	stw	r2,4(sp)
 5042994:	00800044 	movi	r2,1
 5042998:	d8800015 	stw	r2,0(sp)
 504299c:	180f883a 	mov	r7,r3
 50429a0:	5040f480 	call	5040f48 <vid_draw_line>
          vid_draw_line(cx - x, cy - y, cx + x + straight_width, cy - y, 1, color, display);
 50429a4:	e0fffb17 	ldw	r3,-20(fp)
 50429a8:	e0bffd17 	ldw	r2,-12(fp)
 50429ac:	1889c83a 	sub	r4,r3,r2
 50429b0:	e0fffc17 	ldw	r3,-16(fp)
 50429b4:	e0bffe17 	ldw	r2,-8(fp)
 50429b8:	188bc83a 	sub	r5,r3,r2
 50429bc:	e0fffb17 	ldw	r3,-20(fp)
 50429c0:	e0bffd17 	ldw	r2,-12(fp)
 50429c4:	1887883a 	add	r3,r3,r2
 50429c8:	e0800217 	ldw	r2,8(fp)
 50429cc:	188d883a 	add	r6,r3,r2
 50429d0:	e0fffc17 	ldw	r3,-16(fp)
 50429d4:	e0bffe17 	ldw	r2,-8(fp)
 50429d8:	1887c83a 	sub	r3,r3,r2
 50429dc:	e0800617 	ldw	r2,24(fp)
 50429e0:	d8800215 	stw	r2,8(sp)
 50429e4:	e0800417 	ldw	r2,16(fp)
 50429e8:	d8800115 	stw	r2,4(sp)
 50429ec:	00800044 	movi	r2,1
 50429f0:	d8800015 	stw	r2,0(sp)
 50429f4:	180f883a 	mov	r7,r3
 50429f8:	5040f480 	call	5040f48 <vid_draw_line>
          vid_set_pixel(cx - y, cy + x + straight_height, color, display);
          vid_set_pixel(cx + y + straight_width, cy - x, color, display);
          vid_set_pixel(cx - y, cy - x, color, display);
        }
    }
}
 50429fc:	00006806 	br	5042ba0 <vid_round_corner_points+0x724>
          vid_draw_line(cx - x, cy + y + straight_height, cx + x + straight_width, cy + y + straight_height, 1, color, display);
          vid_draw_line(cx - y, cy + x + straight_height, cx + y + straight_width, cy + x + straight_height, 1, color, display);
          vid_draw_line(cx - y, cy - x, cx + y + straight_width, cy - x, 1, color, display);
          vid_draw_line(cx - x, cy - y, cx + x + straight_width, cy - y, 1, color, display);
        } else {
          vid_set_pixel(cx + x + straight_width, cy + y + straight_height, color, display);
 5042a00:	e0fffb17 	ldw	r3,-20(fp)
 5042a04:	e0bffd17 	ldw	r2,-12(fp)
 5042a08:	1887883a 	add	r3,r3,r2
 5042a0c:	e0800217 	ldw	r2,8(fp)
 5042a10:	1889883a 	add	r4,r3,r2
 5042a14:	e0fffc17 	ldw	r3,-16(fp)
 5042a18:	e0bffe17 	ldw	r2,-8(fp)
 5042a1c:	1887883a 	add	r3,r3,r2
 5042a20:	e0800317 	ldw	r2,12(fp)
 5042a24:	1885883a 	add	r2,r3,r2
 5042a28:	e0c00417 	ldw	r3,16(fp)
 5042a2c:	e1c00617 	ldw	r7,24(fp)
 5042a30:	180d883a 	mov	r6,r3
 5042a34:	100b883a 	mov	r5,r2
 5042a38:	50419700 	call	5041970 <vid_set_pixel>
          vid_set_pixel(cx - x, cy + y + straight_height, color, display);
 5042a3c:	e0fffb17 	ldw	r3,-20(fp)
 5042a40:	e0bffd17 	ldw	r2,-12(fp)
 5042a44:	1889c83a 	sub	r4,r3,r2
 5042a48:	e0fffc17 	ldw	r3,-16(fp)
 5042a4c:	e0bffe17 	ldw	r2,-8(fp)
 5042a50:	1887883a 	add	r3,r3,r2
 5042a54:	e0800317 	ldw	r2,12(fp)
 5042a58:	1885883a 	add	r2,r3,r2
 5042a5c:	e0c00417 	ldw	r3,16(fp)
 5042a60:	e1c00617 	ldw	r7,24(fp)
 5042a64:	180d883a 	mov	r6,r3
 5042a68:	100b883a 	mov	r5,r2
 5042a6c:	50419700 	call	5041970 <vid_set_pixel>
          vid_set_pixel(cx + x + straight_width, cy - y, color, display);
 5042a70:	e0fffb17 	ldw	r3,-20(fp)
 5042a74:	e0bffd17 	ldw	r2,-12(fp)
 5042a78:	1887883a 	add	r3,r3,r2
 5042a7c:	e0800217 	ldw	r2,8(fp)
 5042a80:	1889883a 	add	r4,r3,r2
 5042a84:	e0fffc17 	ldw	r3,-16(fp)
 5042a88:	e0bffe17 	ldw	r2,-8(fp)
 5042a8c:	1885c83a 	sub	r2,r3,r2
 5042a90:	e0c00417 	ldw	r3,16(fp)
 5042a94:	e1c00617 	ldw	r7,24(fp)
 5042a98:	180d883a 	mov	r6,r3
 5042a9c:	100b883a 	mov	r5,r2
 5042aa0:	50419700 	call	5041970 <vid_set_pixel>
          vid_set_pixel(cx - x, cy - y, color, display);
 5042aa4:	e0fffb17 	ldw	r3,-20(fp)
 5042aa8:	e0bffd17 	ldw	r2,-12(fp)
 5042aac:	1889c83a 	sub	r4,r3,r2
 5042ab0:	e0fffc17 	ldw	r3,-16(fp)
 5042ab4:	e0bffe17 	ldw	r2,-8(fp)
 5042ab8:	1885c83a 	sub	r2,r3,r2
 5042abc:	e0c00417 	ldw	r3,16(fp)
 5042ac0:	e1c00617 	ldw	r7,24(fp)
 5042ac4:	180d883a 	mov	r6,r3
 5042ac8:	100b883a 	mov	r5,r2
 5042acc:	50419700 	call	5041970 <vid_set_pixel>
          vid_set_pixel(cx + y + straight_width, cy + x + straight_height, color, display);
 5042ad0:	e0fffb17 	ldw	r3,-20(fp)
 5042ad4:	e0bffe17 	ldw	r2,-8(fp)
 5042ad8:	1887883a 	add	r3,r3,r2
 5042adc:	e0800217 	ldw	r2,8(fp)
 5042ae0:	1889883a 	add	r4,r3,r2
 5042ae4:	e0fffc17 	ldw	r3,-16(fp)
 5042ae8:	e0bffd17 	ldw	r2,-12(fp)
 5042aec:	1887883a 	add	r3,r3,r2
 5042af0:	e0800317 	ldw	r2,12(fp)
 5042af4:	1885883a 	add	r2,r3,r2
 5042af8:	e0c00417 	ldw	r3,16(fp)
 5042afc:	e1c00617 	ldw	r7,24(fp)
 5042b00:	180d883a 	mov	r6,r3
 5042b04:	100b883a 	mov	r5,r2
 5042b08:	50419700 	call	5041970 <vid_set_pixel>
          vid_set_pixel(cx - y, cy + x + straight_height, color, display);
 5042b0c:	e0fffb17 	ldw	r3,-20(fp)
 5042b10:	e0bffe17 	ldw	r2,-8(fp)
 5042b14:	1889c83a 	sub	r4,r3,r2
 5042b18:	e0fffc17 	ldw	r3,-16(fp)
 5042b1c:	e0bffd17 	ldw	r2,-12(fp)
 5042b20:	1887883a 	add	r3,r3,r2
 5042b24:	e0800317 	ldw	r2,12(fp)
 5042b28:	1885883a 	add	r2,r3,r2
 5042b2c:	e0c00417 	ldw	r3,16(fp)
 5042b30:	e1c00617 	ldw	r7,24(fp)
 5042b34:	180d883a 	mov	r6,r3
 5042b38:	100b883a 	mov	r5,r2
 5042b3c:	50419700 	call	5041970 <vid_set_pixel>
          vid_set_pixel(cx + y + straight_width, cy - x, color, display);
 5042b40:	e0fffb17 	ldw	r3,-20(fp)
 5042b44:	e0bffe17 	ldw	r2,-8(fp)
 5042b48:	1887883a 	add	r3,r3,r2
 5042b4c:	e0800217 	ldw	r2,8(fp)
 5042b50:	1889883a 	add	r4,r3,r2
 5042b54:	e0fffc17 	ldw	r3,-16(fp)
 5042b58:	e0bffd17 	ldw	r2,-12(fp)
 5042b5c:	1885c83a 	sub	r2,r3,r2
 5042b60:	e0c00417 	ldw	r3,16(fp)
 5042b64:	e1c00617 	ldw	r7,24(fp)
 5042b68:	180d883a 	mov	r6,r3
 5042b6c:	100b883a 	mov	r5,r2
 5042b70:	50419700 	call	5041970 <vid_set_pixel>
          vid_set_pixel(cx - y, cy - x, color, display);
 5042b74:	e0fffb17 	ldw	r3,-20(fp)
 5042b78:	e0bffe17 	ldw	r2,-8(fp)
 5042b7c:	1889c83a 	sub	r4,r3,r2
 5042b80:	e0fffc17 	ldw	r3,-16(fp)
 5042b84:	e0bffd17 	ldw	r2,-12(fp)
 5042b88:	1885c83a 	sub	r2,r3,r2
 5042b8c:	e0c00417 	ldw	r3,16(fp)
 5042b90:	e1c00617 	ldw	r7,24(fp)
 5042b94:	180d883a 	mov	r6,r3
 5042b98:	100b883a 	mov	r5,r2
 5042b9c:	50419700 	call	5041970 <vid_set_pixel>
        }
    }
}
 5042ba0:	0001883a 	nop
 5042ba4:	e037883a 	mov	sp,fp
 5042ba8:	dfc00117 	ldw	ra,4(sp)
 5042bac:	df000017 	ldw	fp,0(sp)
 5042bb0:	dec00204 	addi	sp,sp,8
 5042bb4:	f800283a 	ret

05042bb8 <max3>:
*  Purpose:  Returns the minimum value of 3 parameters
*            Used for drawing filled shapes
*
******************************************************************/
int max3( int a, int b, int c )
{
 5042bb8:	defffc04 	addi	sp,sp,-16
 5042bbc:	df000315 	stw	fp,12(sp)
 5042bc0:	df000304 	addi	fp,sp,12
 5042bc4:	e13ffd15 	stw	r4,-12(fp)
 5042bc8:	e17ffe15 	stw	r5,-8(fp)
 5042bcc:	e1bfff15 	stw	r6,-4(fp)
  if( a < b )
 5042bd0:	e0fffd17 	ldw	r3,-12(fp)
 5042bd4:	e0bffe17 	ldw	r2,-8(fp)
 5042bd8:	1880020e 	bge	r3,r2,5042be4 <max3+0x2c>
    a = b;
 5042bdc:	e0bffe17 	ldw	r2,-8(fp)
 5042be0:	e0bffd15 	stw	r2,-12(fp)
  if( a < c )
 5042be4:	e0fffd17 	ldw	r3,-12(fp)
 5042be8:	e0bfff17 	ldw	r2,-4(fp)
 5042bec:	1880020e 	bge	r3,r2,5042bf8 <max3+0x40>
    a = c;
 5042bf0:	e0bfff17 	ldw	r2,-4(fp)
 5042bf4:	e0bffd15 	stw	r2,-12(fp)
  
  return a;
 5042bf8:	e0bffd17 	ldw	r2,-12(fp)
}
 5042bfc:	e037883a 	mov	sp,fp
 5042c00:	df000017 	ldw	fp,0(sp)
 5042c04:	dec00104 	addi	sp,sp,4
 5042c08:	f800283a 	ret

05042c0c <min3>:
*  Purpose:  Returns the minimum value of 3 parameters
*            Used for drawing filled shapes.
*
******************************************************************/
int min3( int a, int b, int c )
{
 5042c0c:	defffc04 	addi	sp,sp,-16
 5042c10:	df000315 	stw	fp,12(sp)
 5042c14:	df000304 	addi	fp,sp,12
 5042c18:	e13ffd15 	stw	r4,-12(fp)
 5042c1c:	e17ffe15 	stw	r5,-8(fp)
 5042c20:	e1bfff15 	stw	r6,-4(fp)
  if( a > b )
 5042c24:	e0bffd17 	ldw	r2,-12(fp)
 5042c28:	e0fffe17 	ldw	r3,-8(fp)
 5042c2c:	1880020e 	bge	r3,r2,5042c38 <min3+0x2c>
    a = b;
 5042c30:	e0bffe17 	ldw	r2,-8(fp)
 5042c34:	e0bffd15 	stw	r2,-12(fp)
  if( a > c )
 5042c38:	e0bffd17 	ldw	r2,-12(fp)
 5042c3c:	e0ffff17 	ldw	r3,-4(fp)
 5042c40:	1880020e 	bge	r3,r2,5042c4c <min3+0x40>
    a = c;
 5042c44:	e0bfff17 	ldw	r2,-4(fp)
 5042c48:	e0bffd15 	stw	r2,-12(fp)
  
  return a;
 5042c4c:	e0bffd17 	ldw	r2,-12(fp)
}
 5042c50:	e037883a 	mov	sp,fp
 5042c54:	df000017 	ldw	fp,0(sp)
 5042c58:	dec00104 	addi	sp,sp,4
 5042c5c:	f800283a 	ret

05042c60 <max_diff3>:
*  Purpose:  Returns the positive max difference between 3 
*            parameters.  Used for drawing filled shapes
*
******************************************************************/
int max_diff3(int a, int b, int c)
{
 5042c60:	defff904 	addi	sp,sp,-28
 5042c64:	dfc00615 	stw	ra,24(sp)
 5042c68:	df000515 	stw	fp,20(sp)
 5042c6c:	df000504 	addi	fp,sp,20
 5042c70:	e13ffd15 	stw	r4,-12(fp)
 5042c74:	e17ffe15 	stw	r5,-8(fp)
 5042c78:	e1bfff15 	stw	r6,-4(fp)
  int max, min;
    
  max = max3( a, b, c );
 5042c7c:	e1bfff17 	ldw	r6,-4(fp)
 5042c80:	e17ffe17 	ldw	r5,-8(fp)
 5042c84:	e13ffd17 	ldw	r4,-12(fp)
 5042c88:	5042bb80 	call	5042bb8 <max3>
 5042c8c:	e0bffb15 	stw	r2,-20(fp)
  min = min3( a, b, c );
 5042c90:	e1bfff17 	ldw	r6,-4(fp)
 5042c94:	e17ffe17 	ldw	r5,-8(fp)
 5042c98:	e13ffd17 	ldw	r4,-12(fp)
 5042c9c:	5042c0c0 	call	5042c0c <min3>
 5042ca0:	e0bffc15 	stw	r2,-16(fp)
  return (max - min);
 5042ca4:	e0fffb17 	ldw	r3,-20(fp)
 5042ca8:	e0bffc17 	ldw	r2,-16(fp)
 5042cac:	1885c83a 	sub	r2,r3,r2
}
 5042cb0:	e037883a 	mov	sp,fp
 5042cb4:	dfc00117 	ldw	ra,4(sp)
 5042cb8:	df000017 	ldw	fp,0(sp)
 5042cbc:	dec00204 	addi	sp,sp,8
 5042cc0:	f800283a 	ret

05042cc4 <vid_put_pixel_in_span_map>:
*            min value of an element that represents a span, 
*            essentially just a horizontal line used to fill shapes.
*
******************************************************************/
void vid_put_pixel_in_span_map( int x, int y, int *span_array )
{
 5042cc4:	defffc04 	addi	sp,sp,-16
 5042cc8:	df000315 	stw	fp,12(sp)
 5042ccc:	df000304 	addi	fp,sp,12
 5042cd0:	e13ffd15 	stw	r4,-12(fp)
 5042cd4:	e17ffe15 	stw	r5,-8(fp)
 5042cd8:	e1bfff15 	stw	r6,-4(fp)
  if (span_array[y*2] == -1)
 5042cdc:	e0bffe17 	ldw	r2,-8(fp)
 5042ce0:	100490fa 	slli	r2,r2,3
 5042ce4:	1007883a 	mov	r3,r2
 5042ce8:	e0bfff17 	ldw	r2,-4(fp)
 5042cec:	10c5883a 	add	r2,r2,r3
 5042cf0:	10800017 	ldw	r2,0(r2)
 5042cf4:	10bfffd8 	cmpnei	r2,r2,-1
 5042cf8:	10000f1e 	bne	r2,zero,5042d38 <vid_put_pixel_in_span_map+0x74>
  {
    span_array[y*2] = x;
 5042cfc:	e0bffe17 	ldw	r2,-8(fp)
 5042d00:	100490fa 	slli	r2,r2,3
 5042d04:	1007883a 	mov	r3,r2
 5042d08:	e0bfff17 	ldw	r2,-4(fp)
 5042d0c:	10c5883a 	add	r2,r2,r3
 5042d10:	e0fffd17 	ldw	r3,-12(fp)
 5042d14:	10c00015 	stw	r3,0(r2)
    span_array[(y*2)+1] = x;
 5042d18:	e0bffe17 	ldw	r2,-8(fp)
 5042d1c:	100490fa 	slli	r2,r2,3
 5042d20:	10800104 	addi	r2,r2,4
 5042d24:	e0ffff17 	ldw	r3,-4(fp)
 5042d28:	1885883a 	add	r2,r3,r2
 5042d2c:	e0fffd17 	ldw	r3,-12(fp)
 5042d30:	10c00015 	stw	r3,0(r2)
  }
  else if( span_array[y*2] > x )
    span_array[y*2] = x;
  else if( span_array[(y*2)+1] < x )
    span_array[(y*2)+1] = x;
}
 5042d34:	00001f06 	br	5042db4 <vid_put_pixel_in_span_map+0xf0>
  if (span_array[y*2] == -1)
  {
    span_array[y*2] = x;
    span_array[(y*2)+1] = x;
  }
  else if( span_array[y*2] > x )
 5042d38:	e0bffe17 	ldw	r2,-8(fp)
 5042d3c:	100490fa 	slli	r2,r2,3
 5042d40:	1007883a 	mov	r3,r2
 5042d44:	e0bfff17 	ldw	r2,-4(fp)
 5042d48:	10c5883a 	add	r2,r2,r3
 5042d4c:	10800017 	ldw	r2,0(r2)
 5042d50:	e0fffd17 	ldw	r3,-12(fp)
 5042d54:	1880080e 	bge	r3,r2,5042d78 <vid_put_pixel_in_span_map+0xb4>
    span_array[y*2] = x;
 5042d58:	e0bffe17 	ldw	r2,-8(fp)
 5042d5c:	100490fa 	slli	r2,r2,3
 5042d60:	1007883a 	mov	r3,r2
 5042d64:	e0bfff17 	ldw	r2,-4(fp)
 5042d68:	10c5883a 	add	r2,r2,r3
 5042d6c:	e0fffd17 	ldw	r3,-12(fp)
 5042d70:	10c00015 	stw	r3,0(r2)
  else if( span_array[(y*2)+1] < x )
    span_array[(y*2)+1] = x;
}
 5042d74:	00000f06 	br	5042db4 <vid_put_pixel_in_span_map+0xf0>
    span_array[y*2] = x;
    span_array[(y*2)+1] = x;
  }
  else if( span_array[y*2] > x )
    span_array[y*2] = x;
  else if( span_array[(y*2)+1] < x )
 5042d78:	e0bffe17 	ldw	r2,-8(fp)
 5042d7c:	100490fa 	slli	r2,r2,3
 5042d80:	10800104 	addi	r2,r2,4
 5042d84:	e0ffff17 	ldw	r3,-4(fp)
 5042d88:	1885883a 	add	r2,r3,r2
 5042d8c:	10c00017 	ldw	r3,0(r2)
 5042d90:	e0bffd17 	ldw	r2,-12(fp)
 5042d94:	1880070e 	bge	r3,r2,5042db4 <vid_put_pixel_in_span_map+0xf0>
    span_array[(y*2)+1] = x;
 5042d98:	e0bffe17 	ldw	r2,-8(fp)
 5042d9c:	100490fa 	slli	r2,r2,3
 5042da0:	10800104 	addi	r2,r2,4
 5042da4:	e0ffff17 	ldw	r3,-4(fp)
 5042da8:	1885883a 	add	r2,r3,r2
 5042dac:	e0fffd17 	ldw	r3,-12(fp)
 5042db0:	10c00015 	stw	r3,0(r2)
}
 5042db4:	0001883a 	nop
 5042db8:	e037883a 	mov	sp,fp
 5042dbc:	df000017 	ldw	fp,0(sp)
 5042dc0:	dec00104 	addi	sp,sp,4
 5042dc4:	f800283a 	ret

05042dc8 <vid_bres_scan_edges>:
*            filled shapes where you fill by drawing successive
*            horizontal lines.
*
******************************************************************/
void vid_bres_scan_edges( int x1, int y1, int x2, int y2, int *span_array) 
{
 5042dc8:	deffee04 	addi	sp,sp,-72
 5042dcc:	dfc01115 	stw	ra,68(sp)
 5042dd0:	df001015 	stw	fp,64(sp)
 5042dd4:	df001004 	addi	fp,sp,64
 5042dd8:	e13ffc15 	stw	r4,-16(fp)
 5042ddc:	e17ffd15 	stw	r5,-12(fp)
 5042de0:	e1bffe15 	stw	r6,-8(fp)
 5042de4:	e1ffff15 	stw	r7,-4(fp)

  int x_incr, y_incr;
  int y_delta, x_delta;

  // Assure we always draw left to right
  if( x1 > x2 )
 5042de8:	e0bffc17 	ldw	r2,-16(fp)
 5042dec:	e0fffe17 	ldw	r3,-8(fp)
 5042df0:	18800c0e 	bge	r3,r2,5042e24 <vid_bres_scan_edges+0x5c>
  {
    int tempx = x2;
 5042df4:	e0bffe17 	ldw	r2,-8(fp)
 5042df8:	e0bff515 	stw	r2,-44(fp)
    x2 = x1;
 5042dfc:	e0bffc17 	ldw	r2,-16(fp)
 5042e00:	e0bffe15 	stw	r2,-8(fp)
    x1 = tempx;
 5042e04:	e0bff517 	ldw	r2,-44(fp)
 5042e08:	e0bffc15 	stw	r2,-16(fp)
    int tempy = y2;
 5042e0c:	e0bfff17 	ldw	r2,-4(fp)
 5042e10:	e0bff615 	stw	r2,-40(fp)
    y2 = y1;
 5042e14:	e0bffd17 	ldw	r2,-12(fp)
 5042e18:	e0bfff15 	stw	r2,-4(fp)
    y1 = tempy;
 5042e1c:	e0bff617 	ldw	r2,-40(fp)
 5042e20:	e0bffd15 	stw	r2,-12(fp)
  }
  
  // Find the vertical and horizontal distance between the two points
  y_delta = abs(y1-y2);
 5042e24:	e0fffd17 	ldw	r3,-12(fp)
 5042e28:	e0bfff17 	ldw	r2,-4(fp)
 5042e2c:	1885c83a 	sub	r2,r3,r2
 5042e30:	1000010e 	bge	r2,zero,5042e38 <vid_bres_scan_edges+0x70>
 5042e34:	0085c83a 	sub	r2,zero,r2
 5042e38:	e0bff115 	stw	r2,-60(fp)
  x_delta = (x2-x1);
 5042e3c:	e0fffe17 	ldw	r3,-8(fp)
 5042e40:	e0bffc17 	ldw	r2,-16(fp)
 5042e44:	1885c83a 	sub	r2,r3,r2
 5042e48:	e0bff215 	stw	r2,-56(fp)

  // Find out what direction we are going
  if (y1 > y2) { y_incr=-1; } else { y_incr=1; }
 5042e4c:	e0bffd17 	ldw	r2,-12(fp)
 5042e50:	e0ffff17 	ldw	r3,-4(fp)
 5042e54:	1880030e 	bge	r3,r2,5042e64 <vid_bres_scan_edges+0x9c>
 5042e58:	00bfffc4 	movi	r2,-1
 5042e5c:	e0bff015 	stw	r2,-64(fp)
 5042e60:	00000206 	br	5042e6c <vid_bres_scan_edges+0xa4>
 5042e64:	00800044 	movi	r2,1
 5042e68:	e0bff015 	stw	r2,-64(fp)
  x_incr=1;
 5042e6c:	00800044 	movi	r2,1
 5042e70:	e0bff715 	stw	r2,-36(fp)

  // Find out which axis is always incremented when drawing the line
  // If it's the horizontal axis
  if (x_delta >= y_delta) {
 5042e74:	e0fff217 	ldw	r3,-56(fp)
 5042e78:	e0bff117 	ldw	r2,-60(fp)
 5042e7c:	18802f16 	blt	r3,r2,5042f3c <vid_bres_scan_edges+0x174>
    int dPr   = y_delta<<1;
 5042e80:	e0bff117 	ldw	r2,-60(fp)
 5042e84:	1085883a 	add	r2,r2,r2
 5042e88:	e0bff815 	stw	r2,-32(fp)
    int dPru  = dPr - (x_delta<<1);
 5042e8c:	e0bff217 	ldw	r2,-56(fp)
 5042e90:	1085883a 	add	r2,r2,r2
 5042e94:	1007883a 	mov	r3,r2
 5042e98:	e0bff817 	ldw	r2,-32(fp)
 5042e9c:	10c5c83a 	sub	r2,r2,r3
 5042ea0:	e0bff915 	stw	r2,-28(fp)
    int P     = dPr - x_delta;
 5042ea4:	e0fff817 	ldw	r3,-32(fp)
 5042ea8:	e0bff217 	ldw	r2,-56(fp)
 5042eac:	1885c83a 	sub	r2,r3,r2
 5042eb0:	e0bff315 	stw	r2,-52(fp)

    // Process the line, one horizontal point at at time
    for (; x_delta >= 0; x_delta--) {
 5042eb4:	00001e06 	br	5042f30 <vid_bres_scan_edges+0x168>
      // map the pixel
      vid_put_pixel_in_span_map(x1, y1, span_array);
 5042eb8:	e1800217 	ldw	r6,8(fp)
 5042ebc:	e17ffd17 	ldw	r5,-12(fp)
 5042ec0:	e13ffc17 	ldw	r4,-16(fp)
 5042ec4:	5042cc40 	call	5042cc4 <vid_put_pixel_in_span_map>
      // If we're moving along both axis
      if (P > 0) {
 5042ec8:	e0bff317 	ldw	r2,-52(fp)
 5042ecc:	00800d0e 	bge	zero,r2,5042f04 <vid_bres_scan_edges+0x13c>
        x1+=x_incr;
 5042ed0:	e0fffc17 	ldw	r3,-16(fp)
 5042ed4:	e0bff717 	ldw	r2,-36(fp)
 5042ed8:	1885883a 	add	r2,r3,r2
 5042edc:	e0bffc15 	stw	r2,-16(fp)
        y1+=y_incr;
 5042ee0:	e0fffd17 	ldw	r3,-12(fp)
 5042ee4:	e0bff017 	ldw	r2,-64(fp)
 5042ee8:	1885883a 	add	r2,r3,r2
 5042eec:	e0bffd15 	stw	r2,-12(fp)
        P+=dPru;
 5042ef0:	e0fff317 	ldw	r3,-52(fp)
 5042ef4:	e0bff917 	ldw	r2,-28(fp)
 5042ef8:	1885883a 	add	r2,r3,r2
 5042efc:	e0bff315 	stw	r2,-52(fp)
 5042f00:	00000806 	br	5042f24 <vid_bres_scan_edges+0x15c>
      } else {
        x1+=x_incr;
 5042f04:	e0fffc17 	ldw	r3,-16(fp)
 5042f08:	e0bff717 	ldw	r2,-36(fp)
 5042f0c:	1885883a 	add	r2,r3,r2
 5042f10:	e0bffc15 	stw	r2,-16(fp)
        P+=dPr;
 5042f14:	e0fff317 	ldw	r3,-52(fp)
 5042f18:	e0bff817 	ldw	r2,-32(fp)
 5042f1c:	1885883a 	add	r2,r3,r2
 5042f20:	e0bff315 	stw	r2,-52(fp)
    int dPr   = y_delta<<1;
    int dPru  = dPr - (x_delta<<1);
    int P     = dPr - x_delta;

    // Process the line, one horizontal point at at time
    for (; x_delta >= 0; x_delta--) {
 5042f24:	e0bff217 	ldw	r2,-56(fp)
 5042f28:	10bfffc4 	addi	r2,r2,-1
 5042f2c:	e0bff215 	stw	r2,-56(fp)
 5042f30:	e0bff217 	ldw	r2,-56(fp)
 5042f34:	103fe00e 	bge	r2,zero,5042eb8 <_gp+0xfffd7740>
        y1+=y_incr;
        P+=dPr;
      }
    }
  }
}
 5042f38:	00002e06 	br	5042ff4 <vid_bres_scan_edges+0x22c>
      }
    }
  }
  else // If it's the vertical axis
  {
    int dPr   = x_delta<<1;
 5042f3c:	e0bff217 	ldw	r2,-56(fp)
 5042f40:	1085883a 	add	r2,r2,r2
 5042f44:	e0bffa15 	stw	r2,-24(fp)
    int dPru  = dPr - (y_delta<<1);
 5042f48:	e0bff117 	ldw	r2,-60(fp)
 5042f4c:	1085883a 	add	r2,r2,r2
 5042f50:	1007883a 	mov	r3,r2
 5042f54:	e0bffa17 	ldw	r2,-24(fp)
 5042f58:	10c5c83a 	sub	r2,r2,r3
 5042f5c:	e0bffb15 	stw	r2,-20(fp)
    int P     = dPr - y_delta;
 5042f60:	e0fffa17 	ldw	r3,-24(fp)
 5042f64:	e0bff117 	ldw	r2,-60(fp)
 5042f68:	1885c83a 	sub	r2,r3,r2
 5042f6c:	e0bff415 	stw	r2,-48(fp)

    // Process the line, one vertical point at at time
    for (; y_delta>=0; y_delta--) {
 5042f70:	00001e06 	br	5042fec <vid_bres_scan_edges+0x224>
      // plot the pixel
      vid_put_pixel_in_span_map(x1, y1, span_array);
 5042f74:	e1800217 	ldw	r6,8(fp)
 5042f78:	e17ffd17 	ldw	r5,-12(fp)
 5042f7c:	e13ffc17 	ldw	r4,-16(fp)
 5042f80:	5042cc40 	call	5042cc4 <vid_put_pixel_in_span_map>
      // If we're moving along both axis
      if (P > 0) {
 5042f84:	e0bff417 	ldw	r2,-48(fp)
 5042f88:	00800d0e 	bge	zero,r2,5042fc0 <vid_bres_scan_edges+0x1f8>
        x1+=x_incr;
 5042f8c:	e0fffc17 	ldw	r3,-16(fp)
 5042f90:	e0bff717 	ldw	r2,-36(fp)
 5042f94:	1885883a 	add	r2,r3,r2
 5042f98:	e0bffc15 	stw	r2,-16(fp)
        y1+=y_incr;
 5042f9c:	e0fffd17 	ldw	r3,-12(fp)
 5042fa0:	e0bff017 	ldw	r2,-64(fp)
 5042fa4:	1885883a 	add	r2,r3,r2
 5042fa8:	e0bffd15 	stw	r2,-12(fp)
        P+=dPru;
 5042fac:	e0fff417 	ldw	r3,-48(fp)
 5042fb0:	e0bffb17 	ldw	r2,-20(fp)
 5042fb4:	1885883a 	add	r2,r3,r2
 5042fb8:	e0bff415 	stw	r2,-48(fp)
 5042fbc:	00000806 	br	5042fe0 <vid_bres_scan_edges+0x218>
      } else {
        y1+=y_incr;
 5042fc0:	e0fffd17 	ldw	r3,-12(fp)
 5042fc4:	e0bff017 	ldw	r2,-64(fp)
 5042fc8:	1885883a 	add	r2,r3,r2
 5042fcc:	e0bffd15 	stw	r2,-12(fp)
        P+=dPr;
 5042fd0:	e0fff417 	ldw	r3,-48(fp)
 5042fd4:	e0bffa17 	ldw	r2,-24(fp)
 5042fd8:	1885883a 	add	r2,r3,r2
 5042fdc:	e0bff415 	stw	r2,-48(fp)
    int dPr   = x_delta<<1;
    int dPru  = dPr - (y_delta<<1);
    int P     = dPr - y_delta;

    // Process the line, one vertical point at at time
    for (; y_delta>=0; y_delta--) {
 5042fe0:	e0bff117 	ldw	r2,-60(fp)
 5042fe4:	10bfffc4 	addi	r2,r2,-1
 5042fe8:	e0bff115 	stw	r2,-60(fp)
 5042fec:	e0bff117 	ldw	r2,-60(fp)
 5042ff0:	103fe00e 	bge	r2,zero,5042f74 <_gp+0xfffd77fc>
        y1+=y_incr;
        P+=dPr;
      }
    }
  }
}
 5042ff4:	0001883a 	nop
 5042ff8:	e037883a 	mov	sp,fp
 5042ffc:	dfc00117 	ldw	ra,4(sp)
 5043000:	df000017 	ldw	fp,0(sp)
 5043004:	dec00204 	addi	sp,sp,8
 5043008:	f800283a 	ret

0504300c <vid_draw_triangle>:
*  Purpose:  This function draws a triangle on the screen between
*            three points defined by the structure tri.
*
******************************************************************/
void vid_draw_triangle(triangle_struct* tri, alt_video_display* display)
{
 504300c:	defff804 	addi	sp,sp,-32
 5043010:	dfc00715 	stw	ra,28(sp)
 5043014:	df000615 	stw	fp,24(sp)
 5043018:	df000604 	addi	fp,sp,24
 504301c:	e13ffe15 	stw	r4,-8(fp)
 5043020:	e17fff15 	stw	r5,-4(fp)
  int i;
  
  // Outline it first
    vid_draw_line( tri->vertex_x[0], tri->vertex_y[0], 
 5043024:	e0bffe17 	ldw	r2,-8(fp)
 5043028:	11000017 	ldw	r4,0(r2)
 504302c:	e0bffe17 	ldw	r2,-8(fp)
 5043030:	11400317 	ldw	r5,12(r2)
 5043034:	e0bffe17 	ldw	r2,-8(fp)
 5043038:	11800117 	ldw	r6,4(r2)
 504303c:	e0bffe17 	ldw	r2,-8(fp)
 5043040:	11c00417 	ldw	r7,16(r2)
 5043044:	e0bffe17 	ldw	r2,-8(fp)
 5043048:	10800a17 	ldw	r2,40(r2)
 504304c:	e0ffff17 	ldw	r3,-4(fp)
 5043050:	d8c00215 	stw	r3,8(sp)
 5043054:	d8800115 	stw	r2,4(sp)
 5043058:	00800044 	movi	r2,1
 504305c:	d8800015 	stw	r2,0(sp)
 5043060:	5040f480 	call	5040f48 <vid_draw_line>
                   tri->vertex_x[1], tri->vertex_y[1], 1, 
                   tri->col, display);
    vid_draw_line( tri->vertex_x[1], tri->vertex_y[1], 
 5043064:	e0bffe17 	ldw	r2,-8(fp)
 5043068:	11000117 	ldw	r4,4(r2)
 504306c:	e0bffe17 	ldw	r2,-8(fp)
 5043070:	11400417 	ldw	r5,16(r2)
 5043074:	e0bffe17 	ldw	r2,-8(fp)
 5043078:	11800217 	ldw	r6,8(r2)
 504307c:	e0bffe17 	ldw	r2,-8(fp)
 5043080:	11c00517 	ldw	r7,20(r2)
 5043084:	e0bffe17 	ldw	r2,-8(fp)
 5043088:	10800a17 	ldw	r2,40(r2)
 504308c:	e0ffff17 	ldw	r3,-4(fp)
 5043090:	d8c00215 	stw	r3,8(sp)
 5043094:	d8800115 	stw	r2,4(sp)
 5043098:	00800044 	movi	r2,1
 504309c:	d8800015 	stw	r2,0(sp)
 50430a0:	5040f480 	call	5040f48 <vid_draw_line>
                   tri->vertex_x[2], tri->vertex_y[2], 1, 
                   tri->col, display);
    vid_draw_line( tri->vertex_x[2], tri->vertex_y[2], 
 50430a4:	e0bffe17 	ldw	r2,-8(fp)
 50430a8:	11000217 	ldw	r4,8(r2)
 50430ac:	e0bffe17 	ldw	r2,-8(fp)
 50430b0:	11400517 	ldw	r5,20(r2)
 50430b4:	e0bffe17 	ldw	r2,-8(fp)
 50430b8:	11800017 	ldw	r6,0(r2)
 50430bc:	e0bffe17 	ldw	r2,-8(fp)
 50430c0:	11c00317 	ldw	r7,12(r2)
 50430c4:	e0bffe17 	ldw	r2,-8(fp)
 50430c8:	10800a17 	ldw	r2,40(r2)
 50430cc:	e0ffff17 	ldw	r3,-4(fp)
 50430d0:	d8c00215 	stw	r3,8(sp)
 50430d4:	d8800115 	stw	r2,4(sp)
 50430d8:	00800044 	movi	r2,1
 50430dc:	d8800015 	stw	r2,0(sp)
 50430e0:	5040f480 	call	5040f48 <vid_draw_line>
                   tri->vertex_x[0], tri->vertex_y[0], 1, 
                   tri->col, display);
//  vid_draw_line(tri->bx, tri->by, tri->cx, tri->cy, 1, tri->col, display);
//  vid_draw_line(tri->cx, tri->cy, tri->ax, tri->ay, 1, tri->col, display);
  
  if(tri->fill == DO_FILL)
 50430e4:	e0bffe17 	ldw	r2,-8(fp)
 50430e8:	10800b17 	ldw	r2,44(r2)
 50430ec:	10800058 	cmpnei	r2,r2,1
 50430f0:	1000ad1e 	bne	r2,zero,50433a8 <vid_draw_triangle+0x39c>
  {
    tri->top_y = min3(tri->vertex_y[0], tri->vertex_y[1], tri->vertex_y[2]);
 50430f4:	e0bffe17 	ldw	r2,-8(fp)
 50430f8:	10c00317 	ldw	r3,12(r2)
 50430fc:	e0bffe17 	ldw	r2,-8(fp)
 5043100:	11000417 	ldw	r4,16(r2)
 5043104:	e0bffe17 	ldw	r2,-8(fp)
 5043108:	10800517 	ldw	r2,20(r2)
 504310c:	100d883a 	mov	r6,r2
 5043110:	200b883a 	mov	r5,r4
 5043114:	1809883a 	mov	r4,r3
 5043118:	5042c0c0 	call	5042c0c <min3>
 504311c:	1007883a 	mov	r3,r2
 5043120:	e0bffe17 	ldw	r2,-8(fp)
 5043124:	10c00815 	stw	r3,32(r2)
    tri->bottom_y = max3(tri->vertex_y[0], tri->vertex_y[1], tri->vertex_y[2]);
 5043128:	e0bffe17 	ldw	r2,-8(fp)
 504312c:	10c00317 	ldw	r3,12(r2)
 5043130:	e0bffe17 	ldw	r2,-8(fp)
 5043134:	11000417 	ldw	r4,16(r2)
 5043138:	e0bffe17 	ldw	r2,-8(fp)
 504313c:	10800517 	ldw	r2,20(r2)
 5043140:	100d883a 	mov	r6,r2
 5043144:	200b883a 	mov	r5,r4
 5043148:	1809883a 	mov	r4,r3
 504314c:	5042bb80 	call	5042bb8 <max3>
 5043150:	1007883a 	mov	r3,r2
 5043154:	e0bffe17 	ldw	r2,-8(fp)
 5043158:	10c00915 	stw	r3,36(r2)
    tri->spans_needed = max_diff3(tri->vertex_y[0], tri->vertex_y[1], tri->vertex_y[2]);
 504315c:	e0bffe17 	ldw	r2,-8(fp)
 5043160:	10c00317 	ldw	r3,12(r2)
 5043164:	e0bffe17 	ldw	r2,-8(fp)
 5043168:	11000417 	ldw	r4,16(r2)
 504316c:	e0bffe17 	ldw	r2,-8(fp)
 5043170:	10800517 	ldw	r2,20(r2)
 5043174:	100d883a 	mov	r6,r2
 5043178:	200b883a 	mov	r5,r4
 504317c:	1809883a 	mov	r4,r3
 5043180:	5042c600 	call	5042c60 <max_diff3>
 5043184:	1007883a 	mov	r3,r2
 5043188:	e0bffe17 	ldw	r2,-8(fp)
 504318c:	10c00615 	stw	r3,24(r2)
    tri->max_span = max_diff3(tri->vertex_x[0], tri->vertex_x[1], tri->vertex_x[2]);
 5043190:	e0bffe17 	ldw	r2,-8(fp)
 5043194:	10c00017 	ldw	r3,0(r2)
 5043198:	e0bffe17 	ldw	r2,-8(fp)
 504319c:	11000117 	ldw	r4,4(r2)
 50431a0:	e0bffe17 	ldw	r2,-8(fp)
 50431a4:	10800217 	ldw	r2,8(r2)
 50431a8:	100d883a 	mov	r6,r2
 50431ac:	200b883a 	mov	r5,r4
 50431b0:	1809883a 	mov	r4,r3
 50431b4:	5042c600 	call	5042c60 <max_diff3>
 50431b8:	1007883a 	mov	r3,r2
 50431bc:	e0bffe17 	ldw	r2,-8(fp)
 50431c0:	10c00715 	stw	r3,28(r2)
    tri->span_array = malloc(display->height * 4 * 2);
 50431c4:	e0bfff17 	ldw	r2,-4(fp)
 50431c8:	10800217 	ldw	r2,8(r2)
 50431cc:	100490fa 	slli	r2,r2,3
 50431d0:	1009883a 	mov	r4,r2
 50431d4:	504f3600 	call	504f360 <malloc>
 50431d8:	1007883a 	mov	r3,r2
 50431dc:	e0bffe17 	ldw	r2,-8(fp)
 50431e0:	10c00d15 	stw	r3,52(r2)

    //init the span array
    for( i = tri->top_y; i <= tri->bottom_y; i++)
 50431e4:	e0bffe17 	ldw	r2,-8(fp)
 50431e8:	10800817 	ldw	r2,32(r2)
 50431ec:	e0bffd15 	stw	r2,-12(fp)
 50431f0:	00001206 	br	504323c <vid_draw_triangle+0x230>
    {
      tri->span_array[i*2] = -1;
 50431f4:	e0bffe17 	ldw	r2,-8(fp)
 50431f8:	10800d17 	ldw	r2,52(r2)
 50431fc:	e0fffd17 	ldw	r3,-12(fp)
 5043200:	180690fa 	slli	r3,r3,3
 5043204:	10c5883a 	add	r2,r2,r3
 5043208:	00ffffc4 	movi	r3,-1
 504320c:	10c00015 	stw	r3,0(r2)
      tri->span_array[(i*2) + 1] = -1;
 5043210:	e0bffe17 	ldw	r2,-8(fp)
 5043214:	10c00d17 	ldw	r3,52(r2)
 5043218:	e0bffd17 	ldw	r2,-12(fp)
 504321c:	100490fa 	slli	r2,r2,3
 5043220:	10800104 	addi	r2,r2,4
 5043224:	1885883a 	add	r2,r3,r2
 5043228:	00ffffc4 	movi	r3,-1
 504322c:	10c00015 	stw	r3,0(r2)
    tri->spans_needed = max_diff3(tri->vertex_y[0], tri->vertex_y[1], tri->vertex_y[2]);
    tri->max_span = max_diff3(tri->vertex_x[0], tri->vertex_x[1], tri->vertex_x[2]);
    tri->span_array = malloc(display->height * 4 * 2);

    //init the span array
    for( i = tri->top_y; i <= tri->bottom_y; i++)
 5043230:	e0bffd17 	ldw	r2,-12(fp)
 5043234:	10800044 	addi	r2,r2,1
 5043238:	e0bffd15 	stw	r2,-12(fp)
 504323c:	e0bffe17 	ldw	r2,-8(fp)
 5043240:	10c00917 	ldw	r3,36(r2)
 5043244:	e0bffd17 	ldw	r2,-12(fp)
 5043248:	18bfea0e 	bge	r3,r2,50431f4 <_gp+0xfffd7a7c>
      tri->span_array[i*2] = -1;
      tri->span_array[(i*2) + 1] = -1;
    }
    
    // Scan-convert the triangle  
    vid_bres_scan_edges( tri->vertex_x[0], tri->vertex_y[0], 
 504324c:	e0bffe17 	ldw	r2,-8(fp)
 5043250:	10c00017 	ldw	r3,0(r2)
 5043254:	e0bffe17 	ldw	r2,-8(fp)
 5043258:	11000317 	ldw	r4,12(r2)
 504325c:	e0bffe17 	ldw	r2,-8(fp)
 5043260:	11400117 	ldw	r5,4(r2)
 5043264:	e0bffe17 	ldw	r2,-8(fp)
 5043268:	11800417 	ldw	r6,16(r2)
 504326c:	e0bffe17 	ldw	r2,-8(fp)
 5043270:	10800d17 	ldw	r2,52(r2)
 5043274:	d8800015 	stw	r2,0(sp)
 5043278:	300f883a 	mov	r7,r6
 504327c:	280d883a 	mov	r6,r5
 5043280:	200b883a 	mov	r5,r4
 5043284:	1809883a 	mov	r4,r3
 5043288:	5042dc80 	call	5042dc8 <vid_bres_scan_edges>
                         tri->vertex_x[1], tri->vertex_y[1], tri->span_array);
    vid_bres_scan_edges( tri->vertex_x[1], tri->vertex_y[1], 
 504328c:	e0bffe17 	ldw	r2,-8(fp)
 5043290:	10c00117 	ldw	r3,4(r2)
 5043294:	e0bffe17 	ldw	r2,-8(fp)
 5043298:	11000417 	ldw	r4,16(r2)
 504329c:	e0bffe17 	ldw	r2,-8(fp)
 50432a0:	11400217 	ldw	r5,8(r2)
 50432a4:	e0bffe17 	ldw	r2,-8(fp)
 50432a8:	11800517 	ldw	r6,20(r2)
 50432ac:	e0bffe17 	ldw	r2,-8(fp)
 50432b0:	10800d17 	ldw	r2,52(r2)
 50432b4:	d8800015 	stw	r2,0(sp)
 50432b8:	300f883a 	mov	r7,r6
 50432bc:	280d883a 	mov	r6,r5
 50432c0:	200b883a 	mov	r5,r4
 50432c4:	1809883a 	mov	r4,r3
 50432c8:	5042dc80 	call	5042dc8 <vid_bres_scan_edges>
                         tri->vertex_x[2], tri->vertex_y[2], tri->span_array);
    vid_bres_scan_edges( tri->vertex_x[2], tri->vertex_y[2], 
 50432cc:	e0bffe17 	ldw	r2,-8(fp)
 50432d0:	10c00217 	ldw	r3,8(r2)
 50432d4:	e0bffe17 	ldw	r2,-8(fp)
 50432d8:	11000517 	ldw	r4,20(r2)
 50432dc:	e0bffe17 	ldw	r2,-8(fp)
 50432e0:	11400017 	ldw	r5,0(r2)
 50432e4:	e0bffe17 	ldw	r2,-8(fp)
 50432e8:	11800317 	ldw	r6,12(r2)
 50432ec:	e0bffe17 	ldw	r2,-8(fp)
 50432f0:	10800d17 	ldw	r2,52(r2)
 50432f4:	d8800015 	stw	r2,0(sp)
 50432f8:	300f883a 	mov	r7,r6
 50432fc:	280d883a 	mov	r6,r5
 5043300:	200b883a 	mov	r5,r4
 5043304:	1809883a 	mov	r4,r3
 5043308:	5042dc80 	call	5042dc8 <vid_bres_scan_edges>
                         tri->vertex_x[0], tri->vertex_y[0], tri->span_array);
  
    // Render the polygon
    for( i = tri->top_y; i <= tri->bottom_y; i++ )
 504330c:	e0bffe17 	ldw	r2,-8(fp)
 5043310:	10800817 	ldw	r2,32(r2)
 5043314:	e0bffd15 	stw	r2,-12(fp)
 5043318:	00001b06 	br	5043388 <vid_draw_triangle+0x37c>
    {
//      vid_draw_horiz_line (tri->span_array[i*2], tri->span_array[(i*2)+1], i, tri->col, display);
      vid_draw_line (tri->span_array[i*2], i, tri->span_array[(i*2)+1], i, 1, tri->col, display);
 504331c:	e0bffe17 	ldw	r2,-8(fp)
 5043320:	10800d17 	ldw	r2,52(r2)
 5043324:	e0fffd17 	ldw	r3,-12(fp)
 5043328:	180690fa 	slli	r3,r3,3
 504332c:	10c5883a 	add	r2,r2,r3
 5043330:	11000017 	ldw	r4,0(r2)
 5043334:	e0bffe17 	ldw	r2,-8(fp)
 5043338:	10c00d17 	ldw	r3,52(r2)
 504333c:	e0bffd17 	ldw	r2,-12(fp)
 5043340:	100490fa 	slli	r2,r2,3
 5043344:	10800104 	addi	r2,r2,4
 5043348:	1885883a 	add	r2,r3,r2
 504334c:	11400017 	ldw	r5,0(r2)
 5043350:	e0bffe17 	ldw	r2,-8(fp)
 5043354:	10800a17 	ldw	r2,40(r2)
 5043358:	e0ffff17 	ldw	r3,-4(fp)
 504335c:	d8c00215 	stw	r3,8(sp)
 5043360:	d8800115 	stw	r2,4(sp)
 5043364:	00800044 	movi	r2,1
 5043368:	d8800015 	stw	r2,0(sp)
 504336c:	e1fffd17 	ldw	r7,-12(fp)
 5043370:	280d883a 	mov	r6,r5
 5043374:	e17ffd17 	ldw	r5,-12(fp)
 5043378:	5040f480 	call	5040f48 <vid_draw_line>
                         tri->vertex_x[2], tri->vertex_y[2], tri->span_array);
    vid_bres_scan_edges( tri->vertex_x[2], tri->vertex_y[2], 
                         tri->vertex_x[0], tri->vertex_y[0], tri->span_array);
  
    // Render the polygon
    for( i = tri->top_y; i <= tri->bottom_y; i++ )
 504337c:	e0bffd17 	ldw	r2,-12(fp)
 5043380:	10800044 	addi	r2,r2,1
 5043384:	e0bffd15 	stw	r2,-12(fp)
 5043388:	e0bffe17 	ldw	r2,-8(fp)
 504338c:	10c00917 	ldw	r3,36(r2)
 5043390:	e0bffd17 	ldw	r2,-12(fp)
 5043394:	18bfe10e 	bge	r3,r2,504331c <_gp+0xfffd7ba4>
    {
//      vid_draw_horiz_line (tri->span_array[i*2], tri->span_array[(i*2)+1], i, tri->col, display);
      vid_draw_line (tri->span_array[i*2], i, tri->span_array[(i*2)+1], i, 1, tri->col, display);

    }
    free(tri->span_array);
 5043398:	e0bffe17 	ldw	r2,-8(fp)
 504339c:	10800d17 	ldw	r2,52(r2)
 50433a0:	1009883a 	mov	r4,r2
 50433a4:	504f3740 	call	504f374 <free>
  }
}
 50433a8:	0001883a 	nop
 50433ac:	e037883a 	mov	sp,fp
 50433b0:	dfc00117 	ldw	ra,4(sp)
 50433b4:	df000017 	ldw	fp,0(sp)
 50433b8:	dec00204 	addi	sp,sp,8
 50433bc:	f800283a 	ret

050433c0 <CopyImage16>:

void CopyImage16( short * __restrict__ source_buffer, 
                  short * __restrict__ dest_buffer, 
                  short source_width, short source_height,
                  short dest_width, short dest_height )
{
 50433c0:	defff404 	addi	sp,sp,-48
 50433c4:	dfc00b15 	stw	ra,44(sp)
 50433c8:	df000a15 	stw	fp,40(sp)
 50433cc:	df000a04 	addi	fp,sp,40
 50433d0:	e13ffa15 	stw	r4,-24(fp)
 50433d4:	e17ffb15 	stw	r5,-20(fp)
 50433d8:	300b883a 	mov	r5,r6
 50433dc:	3809883a 	mov	r4,r7
 50433e0:	e0c00217 	ldw	r3,8(fp)
 50433e4:	e0800317 	ldw	r2,12(fp)
 50433e8:	e17ffc0d 	sth	r5,-16(fp)
 50433ec:	e13ffd0d 	sth	r4,-12(fp)
 50433f0:	e0fffe0d 	sth	r3,-8(fp)
 50433f4:	e0bfff0d 	sth	r2,-4(fp)
  int y_src, y_dst;
  int y_src_offset = 0;
 50433f8:	e03ff815 	stw	zero,-32(fp)
  int y_dst_offset = 0;
 50433fc:	e03ff915 	stw	zero,-28(fp)
  
  for( y_src = 0, y_dst = 0; 
 5043400:	e03ff615 	stw	zero,-40(fp)
 5043404:	e03ff715 	stw	zero,-36(fp)
 5043408:	00001e06 	br	5043484 <CopyImage16+0xc4>
       y_src <= ( source_height  - 1 ); 
       y_src++, y_dst++, y_src_offset += source_width, y_dst_offset += dest_width )
  {
    memcpy(( dest_buffer + y_dst_offset ), 
 504340c:	e0bff917 	ldw	r2,-28(fp)
 5043410:	1085883a 	add	r2,r2,r2
 5043414:	1007883a 	mov	r3,r2
 5043418:	e0bffb17 	ldw	r2,-20(fp)
 504341c:	10c7883a 	add	r3,r2,r3
 5043420:	e0bff817 	ldw	r2,-32(fp)
           ( source_buffer + y_src_offset ), 
 5043424:	1085883a 	add	r2,r2,r2
 5043428:	1009883a 	mov	r4,r2
  
  for( y_src = 0, y_dst = 0; 
       y_src <= ( source_height  - 1 ); 
       y_src++, y_dst++, y_src_offset += source_width, y_dst_offset += dest_width )
  {
    memcpy(( dest_buffer + y_dst_offset ), 
 504342c:	e0bffa17 	ldw	r2,-24(fp)
 5043430:	1109883a 	add	r4,r2,r4
           ( source_buffer + y_src_offset ), 
           ( source_width << 1 ));
 5043434:	e0bffc0f 	ldh	r2,-16(fp)
 5043438:	1085883a 	add	r2,r2,r2
  
  for( y_src = 0, y_dst = 0; 
       y_src <= ( source_height  - 1 ); 
       y_src++, y_dst++, y_src_offset += source_width, y_dst_offset += dest_width )
  {
    memcpy(( dest_buffer + y_dst_offset ), 
 504343c:	100d883a 	mov	r6,r2
 5043440:	200b883a 	mov	r5,r4
 5043444:	1809883a 	mov	r4,r3
 5043448:	504fb940 	call	504fb94 <memcpy>
  int y_src_offset = 0;
  int y_dst_offset = 0;
  
  for( y_src = 0, y_dst = 0; 
       y_src <= ( source_height  - 1 ); 
       y_src++, y_dst++, y_src_offset += source_width, y_dst_offset += dest_width )
 504344c:	e0bff617 	ldw	r2,-40(fp)
 5043450:	10800044 	addi	r2,r2,1
 5043454:	e0bff615 	stw	r2,-40(fp)
 5043458:	e0bff717 	ldw	r2,-36(fp)
 504345c:	10800044 	addi	r2,r2,1
 5043460:	e0bff715 	stw	r2,-36(fp)
 5043464:	e0bffc0f 	ldh	r2,-16(fp)
 5043468:	e0fff817 	ldw	r3,-32(fp)
 504346c:	1885883a 	add	r2,r3,r2
 5043470:	e0bff815 	stw	r2,-32(fp)
 5043474:	e0bffe0f 	ldh	r2,-8(fp)
 5043478:	e0fff917 	ldw	r3,-28(fp)
 504347c:	1885883a 	add	r2,r3,r2
 5043480:	e0bff915 	stw	r2,-28(fp)
  int y_src, y_dst;
  int y_src_offset = 0;
  int y_dst_offset = 0;
  
  for( y_src = 0, y_dst = 0; 
       y_src <= ( source_height  - 1 ); 
 5043484:	e0bffd0f 	ldh	r2,-12(fp)
 5043488:	10ffffc4 	addi	r3,r2,-1
{
  int y_src, y_dst;
  int y_src_offset = 0;
  int y_dst_offset = 0;
  
  for( y_src = 0, y_dst = 0; 
 504348c:	e0bff617 	ldw	r2,-40(fp)
 5043490:	18bfde0e 	bge	r3,r2,504340c <_gp+0xfffd7c94>
  {
    memcpy(( dest_buffer + y_dst_offset ), 
           ( source_buffer + y_src_offset ), 
           ( source_width << 1 ));
  }
}
 5043494:	0001883a 	nop
 5043498:	e037883a 	mov	sp,fp
 504349c:	dfc00117 	ldw	ra,4(sp)
 50434a0:	df000017 	ldw	fp,0(sp)
 50434a4:	dec00204 	addi	sp,sp,8
 50434a8:	f800283a 	ret

050434ac <CropImage16>:
                  short * __restrict__ dest_buffer, 
                  short source_width, short source_height,
                  short crop_left, short crop_right,
                  short crop_top, short crop_bottom,
                  short dest_width, short dest_height )
{
 50434ac:	defff004 	addi	sp,sp,-64
 50434b0:	dfc00f15 	stw	ra,60(sp)
 50434b4:	df000e15 	stw	fp,56(sp)
 50434b8:	df000e04 	addi	fp,sp,56
 50434bc:	e13ff615 	stw	r4,-40(fp)
 50434c0:	e17ff715 	stw	r5,-36(fp)
 50434c4:	3013883a 	mov	r9,r6
 50434c8:	3811883a 	mov	r8,r7
 50434cc:	e1c00217 	ldw	r7,8(fp)
 50434d0:	e1800317 	ldw	r6,12(fp)
 50434d4:	e1400417 	ldw	r5,16(fp)
 50434d8:	e1000517 	ldw	r4,20(fp)
 50434dc:	e0c00617 	ldw	r3,24(fp)
 50434e0:	e0800717 	ldw	r2,28(fp)
 50434e4:	e27ff80d 	sth	r9,-32(fp)
 50434e8:	e23ff90d 	sth	r8,-28(fp)
 50434ec:	e1fffa0d 	sth	r7,-24(fp)
 50434f0:	e1bffb0d 	sth	r6,-20(fp)
 50434f4:	e17ffc0d 	sth	r5,-16(fp)
 50434f8:	e13ffd0d 	sth	r4,-12(fp)
 50434fc:	e0fffe0d 	sth	r3,-8(fp)
 5043500:	e0bfff0d 	sth	r2,-4(fp)
  int y_src, y_dst;
  int y_src_offset = (source_width * crop_top);
 5043504:	e0fff80f 	ldh	r3,-32(fp)
 5043508:	e0bffc0f 	ldh	r2,-16(fp)
 504350c:	1885383a 	mul	r2,r3,r2
 5043510:	e0bff415 	stw	r2,-48(fp)
  int y_dst_offset = 0;
 5043514:	e03ff515 	stw	zero,-44(fp)
  
  for( y_src = crop_top, y_dst = 0; 
 5043518:	e0bffc0f 	ldh	r2,-16(fp)
 504351c:	e0bff215 	stw	r2,-56(fp)
 5043520:	e03ff315 	stw	zero,-52(fp)
 5043524:	00002206 	br	50435b0 <CropImage16+0x104>
       y_src <= ( source_height - crop_bottom - 1 ); 
       y_src++, y_dst++, y_src_offset += source_width, y_dst_offset += dest_width )
  {
    memcpy(( dest_buffer + y_dst_offset ), 
 5043528:	e0bff517 	ldw	r2,-44(fp)
 504352c:	1085883a 	add	r2,r2,r2
 5043530:	1007883a 	mov	r3,r2
 5043534:	e0bff717 	ldw	r2,-36(fp)
 5043538:	10c9883a 	add	r4,r2,r3
           ( source_buffer + y_src_offset + crop_left ), 
 504353c:	e0fffa0f 	ldh	r3,-24(fp)
 5043540:	e0bff417 	ldw	r2,-48(fp)
 5043544:	1885883a 	add	r2,r3,r2
 5043548:	1085883a 	add	r2,r2,r2
 504354c:	1007883a 	mov	r3,r2
 5043550:	e0bff617 	ldw	r2,-40(fp)
 5043554:	10cb883a 	add	r5,r2,r3
           ((source_width - crop_left - crop_right) << 1));
 5043558:	e0fff80f 	ldh	r3,-32(fp)
 504355c:	e0bffa0f 	ldh	r2,-24(fp)
 5043560:	1887c83a 	sub	r3,r3,r2
 5043564:	e0bffb0f 	ldh	r2,-20(fp)
 5043568:	1885c83a 	sub	r2,r3,r2
 504356c:	1085883a 	add	r2,r2,r2
  
  for( y_src = crop_top, y_dst = 0; 
       y_src <= ( source_height - crop_bottom - 1 ); 
       y_src++, y_dst++, y_src_offset += source_width, y_dst_offset += dest_width )
  {
    memcpy(( dest_buffer + y_dst_offset ), 
 5043570:	100d883a 	mov	r6,r2
 5043574:	504fb940 	call	504fb94 <memcpy>
  int y_src_offset = (source_width * crop_top);
  int y_dst_offset = 0;
  
  for( y_src = crop_top, y_dst = 0; 
       y_src <= ( source_height - crop_bottom - 1 ); 
       y_src++, y_dst++, y_src_offset += source_width, y_dst_offset += dest_width )
 5043578:	e0bff217 	ldw	r2,-56(fp)
 504357c:	10800044 	addi	r2,r2,1
 5043580:	e0bff215 	stw	r2,-56(fp)
 5043584:	e0bff317 	ldw	r2,-52(fp)
 5043588:	10800044 	addi	r2,r2,1
 504358c:	e0bff315 	stw	r2,-52(fp)
 5043590:	e0bff80f 	ldh	r2,-32(fp)
 5043594:	e0fff417 	ldw	r3,-48(fp)
 5043598:	1885883a 	add	r2,r3,r2
 504359c:	e0bff415 	stw	r2,-48(fp)
 50435a0:	e0bffe0f 	ldh	r2,-8(fp)
 50435a4:	e0fff517 	ldw	r3,-44(fp)
 50435a8:	1885883a 	add	r2,r3,r2
 50435ac:	e0bff515 	stw	r2,-44(fp)
  int y_src, y_dst;
  int y_src_offset = (source_width * crop_top);
  int y_dst_offset = 0;
  
  for( y_src = crop_top, y_dst = 0; 
       y_src <= ( source_height - crop_bottom - 1 ); 
 50435b0:	e0fff90f 	ldh	r3,-28(fp)
 50435b4:	e0bffd0f 	ldh	r2,-12(fp)
 50435b8:	1885c83a 	sub	r2,r3,r2
 50435bc:	10ffffc4 	addi	r3,r2,-1
{
  int y_src, y_dst;
  int y_src_offset = (source_width * crop_top);
  int y_dst_offset = 0;
  
  for( y_src = crop_top, y_dst = 0; 
 50435c0:	e0bff217 	ldw	r2,-56(fp)
 50435c4:	18bfd80e 	bge	r3,r2,5043528 <_gp+0xfffd7db0>
  {
    memcpy(( dest_buffer + y_dst_offset ), 
           ( source_buffer + y_src_offset + crop_left ), 
           ((source_width - crop_left - crop_right) << 1));
  }
}
 50435c8:	0001883a 	nop
 50435cc:	e037883a 	mov	sp,fp
 50435d0:	dfc00117 	ldw	ra,4(sp)
 50435d4:	df000017 	ldw	fp,0(sp)
 50435d8:	dec00204 	addi	sp,sp,8
 50435dc:	f800283a 	ret

050435e0 <vid_print_string_alpha>:
*           24 bit - R(8):G(8):B(8)  (packed)
*           32 bit - 0 : R(8):G(8):B(8) (unpacked)
******************************************************************/

int vid_print_string_alpha(int horiz_offset, int vert_offset, int color, int background_color, struct abc_font_struct font[], alt_video_display * display, char string[])
{
 50435e0:	defff404 	addi	sp,sp,-48
 50435e4:	dfc00b15 	stw	ra,44(sp)
 50435e8:	df000a15 	stw	fp,40(sp)
 50435ec:	df000a04 	addi	fp,sp,40
 50435f0:	e13ffc15 	stw	r4,-16(fp)
 50435f4:	e17ffd15 	stw	r5,-12(fp)
 50435f8:	e1bffe15 	stw	r6,-8(fp)
 50435fc:	e1ffff15 	stw	r7,-4(fp)
  int i = 0;
 5043600:	e03ff915 	stw	zero,-28(fp)
  int tab;
  int original_horiz_offset;

  original_horiz_offset = horiz_offset;
 5043604:	e0bffc17 	ldw	r2,-16(fp)
 5043608:	e0bffb15 	stw	r2,-20(fp)

  // Print until we hit the '\0' char.
  while (string[i]) {
 504360c:	00007f06 	br	504380c <vid_print_string_alpha+0x22c>
    //Handle newline char here.
    if (string[i] == '\n') {
 5043610:	e0bff917 	ldw	r2,-28(fp)
 5043614:	e0c00417 	ldw	r3,16(fp)
 5043618:	1885883a 	add	r2,r3,r2
 504361c:	10800003 	ldbu	r2,0(r2)
 5043620:	10803fcc 	andi	r2,r2,255
 5043624:	1080201c 	xori	r2,r2,128
 5043628:	10bfe004 	addi	r2,r2,-128
 504362c:	10800298 	cmpnei	r2,r2,10
 5043630:	10000c1e 	bne	r2,zero,5043664 <vid_print_string_alpha+0x84>
      horiz_offset = original_horiz_offset;
 5043634:	e0bffb17 	ldw	r2,-20(fp)
 5043638:	e0bffc15 	stw	r2,-16(fp)
      vert_offset += font['|' - 33].bounds_height;  // we'll use "|" to add the line to line spacing
 504363c:	e0800217 	ldw	r2,8(fp)
 5043640:	1082d804 	addi	r2,r2,2912
 5043644:	10c00517 	ldw	r3,20(r2)
 5043648:	e0bffd17 	ldw	r2,-12(fp)
 504364c:	1885883a 	add	r2,r3,r2
 5043650:	e0bffd15 	stw	r2,-12(fp)
      i++;
 5043654:	e0bff917 	ldw	r2,-28(fp)
 5043658:	10800044 	addi	r2,r2,1
 504365c:	e0bff915 	stw	r2,-28(fp)
      continue;
 5043660:	00006a06 	br	504380c <vid_print_string_alpha+0x22c>
    }
    // Lay down that character and increment our offsets.
    if(string[i] == 32)  // this is a space in ASCII
 5043664:	e0bff917 	ldw	r2,-28(fp)
 5043668:	e0c00417 	ldw	r3,16(fp)
 504366c:	1885883a 	add	r2,r3,r2
 5043670:	10800003 	ldbu	r2,0(r2)
 5043674:	10803fcc 	andi	r2,r2,255
 5043678:	1080201c 	xori	r2,r2,128
 504367c:	10bfe004 	addi	r2,r2,-128
 5043680:	10800818 	cmpnei	r2,r2,32
 5043684:	1000151e 	bne	r2,zero,50436dc <vid_print_string_alpha+0xfc>
    {
      if(background_color != CLEAR_BACKGROUND)  // need to fill in this spot (setting foreground to background color so that it looks like a drawn in box)
 5043688:	e0bfff17 	ldw	r2,-4(fp)
 504368c:	10bfffe0 	cmpeqi	r2,r2,-1
 5043690:	10000b1e 	bne	r2,zero,50436c0 <vid_print_string_alpha+0xe0>
      {
        vid_print_char_alpha (horiz_offset, vert_offset, background_color, '-', background_color, font, display);
 5043694:	e0800317 	ldw	r2,12(fp)
 5043698:	d8800215 	stw	r2,8(sp)
 504369c:	e0800217 	ldw	r2,8(fp)
 50436a0:	d8800115 	stw	r2,4(sp)
 50436a4:	e0bfff17 	ldw	r2,-4(fp)
 50436a8:	d8800015 	stw	r2,0(sp)
 50436ac:	01c00b44 	movi	r7,45
 50436b0:	e1bfff17 	ldw	r6,-4(fp)
 50436b4:	e17ffd17 	ldw	r5,-12(fp)
 50436b8:	e13ffc17 	ldw	r4,-16(fp)
 50436bc:	5043d5c0 	call	5043d5c <vid_print_char_alpha>
      }
      horiz_offset += font[45 - 33].bounds_width;  // using the width of the '-' character for the space width since it's not present in the font
 50436c0:	e0800217 	ldw	r2,8(fp)
 50436c4:	10806004 	addi	r2,r2,384
 50436c8:	10c00417 	ldw	r3,16(r2)
 50436cc:	e0bffc17 	ldw	r2,-16(fp)
 50436d0:	1885883a 	add	r2,r3,r2
 50436d4:	e0bffc15 	stw	r2,-16(fp)
 50436d8:	00004906 	br	5043800 <vid_print_string_alpha+0x220>
    }
    else if(string[i] == '\t')  // this is a tab
 50436dc:	e0bff917 	ldw	r2,-28(fp)
 50436e0:	e0c00417 	ldw	r3,16(fp)
 50436e4:	1885883a 	add	r2,r3,r2
 50436e8:	10800003 	ldbu	r2,0(r2)
 50436ec:	10803fcc 	andi	r2,r2,255
 50436f0:	1080201c 	xori	r2,r2,128
 50436f4:	10bfe004 	addi	r2,r2,-128
 50436f8:	10800258 	cmpnei	r2,r2,9
 50436fc:	10001d1e 	bne	r2,zero,5043774 <vid_print_string_alpha+0x194>
    {
      for( tab = 0; tab < TAB_SPACING; tab++ )
 5043700:	e03ffa15 	stw	zero,-24(fp)
 5043704:	00001706 	br	5043764 <vid_print_string_alpha+0x184>
      {
        if(background_color != CLEAR_BACKGROUND)  // need to fill in this spot (setting foreground to background color so that it looks like a drawn in box)
 5043708:	e0bfff17 	ldw	r2,-4(fp)
 504370c:	10bfffe0 	cmpeqi	r2,r2,-1
 5043710:	10000b1e 	bne	r2,zero,5043740 <vid_print_string_alpha+0x160>
        {
          vid_print_char_alpha (horiz_offset, vert_offset, background_color, '-', background_color, font, display);
 5043714:	e0800317 	ldw	r2,12(fp)
 5043718:	d8800215 	stw	r2,8(sp)
 504371c:	e0800217 	ldw	r2,8(fp)
 5043720:	d8800115 	stw	r2,4(sp)
 5043724:	e0bfff17 	ldw	r2,-4(fp)
 5043728:	d8800015 	stw	r2,0(sp)
 504372c:	01c00b44 	movi	r7,45
 5043730:	e1bfff17 	ldw	r6,-4(fp)
 5043734:	e17ffd17 	ldw	r5,-12(fp)
 5043738:	e13ffc17 	ldw	r4,-16(fp)
 504373c:	5043d5c0 	call	5043d5c <vid_print_char_alpha>
        }
        horiz_offset += font[45 - 33].bounds_width;  // using the width of the '-' character for the space width since it's not present in the font
 5043740:	e0800217 	ldw	r2,8(fp)
 5043744:	10806004 	addi	r2,r2,384
 5043748:	10c00417 	ldw	r3,16(r2)
 504374c:	e0bffc17 	ldw	r2,-16(fp)
 5043750:	1885883a 	add	r2,r3,r2
 5043754:	e0bffc15 	stw	r2,-16(fp)
      }
      horiz_offset += font[45 - 33].bounds_width;  // using the width of the '-' character for the space width since it's not present in the font
    }
    else if(string[i] == '\t')  // this is a tab
    {
      for( tab = 0; tab < TAB_SPACING; tab++ )
 5043758:	e0bffa17 	ldw	r2,-24(fp)
 504375c:	10800044 	addi	r2,r2,1
 5043760:	e0bffa15 	stw	r2,-24(fp)
 5043764:	e0bffa17 	ldw	r2,-24(fp)
 5043768:	10800090 	cmplti	r2,r2,2
 504376c:	103fe61e 	bne	r2,zero,5043708 <_gp+0xfffd7f90>
 5043770:	00002306 	br	5043800 <vid_print_string_alpha+0x220>
        horiz_offset += font[45 - 33].bounds_width;  // using the width of the '-' character for the space width since it's not present in the font
      }
    }
    else
    {
      vid_print_char_alpha (horiz_offset, vert_offset, color, string[i], background_color, font, display);
 5043774:	e0bff917 	ldw	r2,-28(fp)
 5043778:	e0c00417 	ldw	r3,16(fp)
 504377c:	1885883a 	add	r2,r3,r2
 5043780:	10800003 	ldbu	r2,0(r2)
 5043784:	10c03fcc 	andi	r3,r2,255
 5043788:	18c0201c 	xori	r3,r3,128
 504378c:	18ffe004 	addi	r3,r3,-128
 5043790:	e0800317 	ldw	r2,12(fp)
 5043794:	d8800215 	stw	r2,8(sp)
 5043798:	e0800217 	ldw	r2,8(fp)
 504379c:	d8800115 	stw	r2,4(sp)
 50437a0:	e0bfff17 	ldw	r2,-4(fp)
 50437a4:	d8800015 	stw	r2,0(sp)
 50437a8:	180f883a 	mov	r7,r3
 50437ac:	e1bffe17 	ldw	r6,-8(fp)
 50437b0:	e17ffd17 	ldw	r5,-12(fp)
 50437b4:	e13ffc17 	ldw	r4,-16(fp)
 50437b8:	5043d5c0 	call	5043d5c <vid_print_char_alpha>
      horiz_offset += font[string[i] - 33].bounds_width;
 50437bc:	e0bff917 	ldw	r2,-28(fp)
 50437c0:	e0c00417 	ldw	r3,16(fp)
 50437c4:	1885883a 	add	r2,r3,r2
 50437c8:	10800003 	ldbu	r2,0(r2)
 50437cc:	10c03fcc 	andi	r3,r2,255
 50437d0:	18c0201c 	xori	r3,r3,128
 50437d4:	18ffe004 	addi	r3,r3,-128
 50437d8:	00820034 	movhi	r2,2048
 50437dc:	10bff7c4 	addi	r2,r2,-33
 50437e0:	1885883a 	add	r2,r3,r2
 50437e4:	1004917a 	slli	r2,r2,5
 50437e8:	e0c00217 	ldw	r3,8(fp)
 50437ec:	1885883a 	add	r2,r3,r2
 50437f0:	10c00417 	ldw	r3,16(r2)
 50437f4:	e0bffc17 	ldw	r2,-16(fp)
 50437f8:	1885883a 	add	r2,r3,r2
 50437fc:	e0bffc15 	stw	r2,-16(fp)
    }
    i++;
 5043800:	e0bff917 	ldw	r2,-28(fp)
 5043804:	10800044 	addi	r2,r2,1
 5043808:	e0bff915 	stw	r2,-28(fp)
  int original_horiz_offset;

  original_horiz_offset = horiz_offset;

  // Print until we hit the '\0' char.
  while (string[i]) {
 504380c:	e0bff917 	ldw	r2,-28(fp)
 5043810:	e0c00417 	ldw	r3,16(fp)
 5043814:	1885883a 	add	r2,r3,r2
 5043818:	10800003 	ldbu	r2,0(r2)
 504381c:	10803fcc 	andi	r2,r2,255
 5043820:	1080201c 	xori	r2,r2,128
 5043824:	10bfe004 	addi	r2,r2,-128
 5043828:	103f791e 	bne	r2,zero,5043610 <_gp+0xfffd7e98>
      vid_print_char_alpha (horiz_offset, vert_offset, color, string[i], background_color, font, display);
      horiz_offset += font[string[i] - 33].bounds_width;
    }
    i++;
  }
  return (0);
 504382c:	0005883a 	mov	r2,zero
}
 5043830:	e037883a 	mov	sp,fp
 5043834:	dfc00117 	ldw	ra,4(sp)
 5043838:	df000017 	ldw	fp,0(sp)
 504383c:	dec00204 	addi	sp,sp,8
 5043840:	f800283a 	ret

05043844 <seperate_color_channels>:
*           the function working on pointers.
*
******************************************************************/

int seperate_color_channels(int color_depth, unsigned char * color, unsigned char * red, unsigned char * green, unsigned char * blue)
{
 5043844:	defff904 	addi	sp,sp,-28
 5043848:	df000615 	stw	fp,24(sp)
 504384c:	df000604 	addi	fp,sp,24
 5043850:	e13ffc15 	stw	r4,-16(fp)
 5043854:	e17ffd15 	stw	r5,-12(fp)
 5043858:	e1bffe15 	stw	r6,-8(fp)
 504385c:	e1ffff15 	stw	r7,-4(fp)
  int return_value;  // error checking in case anyone is listening
  unsigned short temp_color = 0;
 5043860:	e03ffb0d 	sth	zero,-20(fp)
  
  if (color_depth == 16)  // R(5):G(6):B(5)
 5043864:	e0bffc17 	ldw	r2,-16(fp)
 5043868:	10800418 	cmpnei	r2,r2,16
 504386c:	1000221e 	bne	r2,zero,50438f8 <seperate_color_channels+0xb4>
  {
    temp_color = *color++;        // get the first half of the 16 bit color
 5043870:	e0bffd17 	ldw	r2,-12(fp)
 5043874:	10c00044 	addi	r3,r2,1
 5043878:	e0fffd15 	stw	r3,-12(fp)
 504387c:	10800003 	ldbu	r2,0(r2)
 5043880:	10803fcc 	andi	r2,r2,255
 5043884:	e0bffb0d 	sth	r2,-20(fp)
    temp_color += (*color << 8);  // get the second half of the 16 bit color
 5043888:	e0bffd17 	ldw	r2,-12(fp)
 504388c:	10800003 	ldbu	r2,0(r2)
 5043890:	10803fcc 	andi	r2,r2,255
 5043894:	1004923a 	slli	r2,r2,8
 5043898:	1007883a 	mov	r3,r2
 504389c:	e0bffb0b 	ldhu	r2,-20(fp)
 50438a0:	1885883a 	add	r2,r3,r2
 50438a4:	e0bffb0d 	sth	r2,-20(fp)
    *blue = temp_color & 0x1F; 
 50438a8:	e0bffb0b 	ldhu	r2,-20(fp)
 50438ac:	108007cc 	andi	r2,r2,31
 50438b0:	1007883a 	mov	r3,r2
 50438b4:	e0800117 	ldw	r2,4(fp)
 50438b8:	10c00005 	stb	r3,0(r2)
    *green = (temp_color >> 5) & 0x3F;
 50438bc:	e0bffb0b 	ldhu	r2,-20(fp)
 50438c0:	1004d17a 	srli	r2,r2,5
 50438c4:	10800fcc 	andi	r2,r2,63
 50438c8:	1007883a 	mov	r3,r2
 50438cc:	e0bfff17 	ldw	r2,-4(fp)
 50438d0:	10c00005 	stb	r3,0(r2)
    *red = (temp_color >> 11) & 0x1F;
 50438d4:	e0bffb0b 	ldhu	r2,-20(fp)
 50438d8:	1004d2fa 	srli	r2,r2,11
 50438dc:	108007cc 	andi	r2,r2,31
 50438e0:	1007883a 	mov	r3,r2
 50438e4:	e0bffe17 	ldw	r2,-8(fp)
 50438e8:	10c00005 	stb	r3,0(r2)
    return_value = 1;
 50438ec:	00800044 	movi	r2,1
 50438f0:	e0bffa15 	stw	r2,-24(fp)
 50438f4:	00002006 	br	5043978 <seperate_color_channels+0x134>
  }
  else if ((color_depth == 24) || (color_depth == 32))  // R(8):G(8):B(8) packed/unpacked
 50438f8:	e0bffc17 	ldw	r2,-16(fp)
 50438fc:	10800620 	cmpeqi	r2,r2,24
 5043900:	1000031e 	bne	r2,zero,5043910 <seperate_color_channels+0xcc>
 5043904:	e0bffc17 	ldw	r2,-16(fp)
 5043908:	10800818 	cmpnei	r2,r2,32
 504390c:	1000131e 	bne	r2,zero,504395c <seperate_color_channels+0x118>
  {
    *blue = *color++;
 5043910:	e0bffd17 	ldw	r2,-12(fp)
 5043914:	10c00044 	addi	r3,r2,1
 5043918:	e0fffd15 	stw	r3,-12(fp)
 504391c:	10c00003 	ldbu	r3,0(r2)
 5043920:	e0800117 	ldw	r2,4(fp)
 5043924:	10c00005 	stb	r3,0(r2)
    *green = *color++;
 5043928:	e0bffd17 	ldw	r2,-12(fp)
 504392c:	10c00044 	addi	r3,r2,1
 5043930:	e0fffd15 	stw	r3,-12(fp)
 5043934:	10c00003 	ldbu	r3,0(r2)
 5043938:	e0bfff17 	ldw	r2,-4(fp)
 504393c:	10c00005 	stb	r3,0(r2)
    *red = *color;   
 5043940:	e0bffd17 	ldw	r2,-12(fp)
 5043944:	10c00003 	ldbu	r3,0(r2)
 5043948:	e0bffe17 	ldw	r2,-8(fp)
 504394c:	10c00005 	stb	r3,0(r2)
    return_value = 1;
 5043950:	00800044 	movi	r2,1
 5043954:	e0bffa15 	stw	r2,-24(fp)
 5043958:	00000706 	br	5043978 <seperate_color_channels+0x134>
  }
  else  // not a valid color depth for this function
  {
    *red = 0;
 504395c:	e0bffe17 	ldw	r2,-8(fp)
 5043960:	10000005 	stb	zero,0(r2)
    *green = 0;
 5043964:	e0bfff17 	ldw	r2,-4(fp)
 5043968:	10000005 	stb	zero,0(r2)
    *blue = 0;    
 504396c:	e0800117 	ldw	r2,4(fp)
 5043970:	10000005 	stb	zero,0(r2)
    return_value = 0;    
 5043974:	e03ffa15 	stw	zero,-24(fp)
  }
  return return_value;
 5043978:	e0bffa17 	ldw	r2,-24(fp)
}
 504397c:	e037883a 	mov	sp,fp
 5043980:	df000017 	ldw	fp,0(sp)
 5043984:	dec00104 	addi	sp,sp,4
 5043988:	f800283a 	ret

0504398c <merge_color_channels>:
*           different color formats and packing.
*
******************************************************************/

int merge_color_channels(int color_depth, unsigned char red, unsigned char green, unsigned char blue, unsigned char * color)
{
 504398c:	defff904 	addi	sp,sp,-28
 5043990:	df000615 	stw	fp,24(sp)
 5043994:	df000604 	addi	fp,sp,24
 5043998:	e13ffc15 	stw	r4,-16(fp)
 504399c:	2809883a 	mov	r4,r5
 50439a0:	3007883a 	mov	r3,r6
 50439a4:	3805883a 	mov	r2,r7
 50439a8:	e13ffd05 	stb	r4,-12(fp)
 50439ac:	e0fffe05 	stb	r3,-8(fp)
 50439b0:	e0bfff05 	stb	r2,-4(fp)
  int return_value;  // error checking in case anyone is listening
  unsigned short temp_color;
    
  if (color_depth == 16)  // R(5):G(6):B(5)
 50439b4:	e0bffc17 	ldw	r2,-16(fp)
 50439b8:	10800418 	cmpnei	r2,r2,16
 50439bc:	1000191e 	bne	r2,zero,5043a24 <merge_color_channels+0x98>
  {
    temp_color = (blue & 0x1F) | ((green & 0x3F) << 5) | ((red & 0x1F) << 11);  // 16 bit color format
 50439c0:	e0bfff03 	ldbu	r2,-4(fp)
 50439c4:	108007cc 	andi	r2,r2,31
 50439c8:	1007883a 	mov	r3,r2
 50439cc:	e0bffe03 	ldbu	r2,-8(fp)
 50439d0:	10800fcc 	andi	r2,r2,63
 50439d4:	1004917a 	slli	r2,r2,5
 50439d8:	1884b03a 	or	r2,r3,r2
 50439dc:	1007883a 	mov	r3,r2
 50439e0:	e0bffd03 	ldbu	r2,-12(fp)
 50439e4:	100492fa 	slli	r2,r2,11
 50439e8:	1884b03a 	or	r2,r3,r2
 50439ec:	e0bffb0d 	sth	r2,-20(fp)
    *color++ = temp_color & 0xFF;
 50439f0:	e0800117 	ldw	r2,4(fp)
 50439f4:	10c00044 	addi	r3,r2,1
 50439f8:	e0c00115 	stw	r3,4(fp)
 50439fc:	e0fffb0b 	ldhu	r3,-20(fp)
 5043a00:	10c00005 	stb	r3,0(r2)
    *color = (temp_color >> 8) & 0xFF;
 5043a04:	e0bffb0b 	ldhu	r2,-20(fp)
 5043a08:	1004d23a 	srli	r2,r2,8
 5043a0c:	1007883a 	mov	r3,r2
 5043a10:	e0800117 	ldw	r2,4(fp)
 5043a14:	10c00005 	stb	r3,0(r2)
    return_value = 1;
 5043a18:	00800044 	movi	r2,1
 5043a1c:	e0bffa15 	stw	r2,-24(fp)
 5043a20:	00002106 	br	5043aa8 <merge_color_channels+0x11c>
  }
  else if ((color_depth == 24) || (color_depth == 32))  // R(8):G(8):B(8) packed/unpacked
 5043a24:	e0bffc17 	ldw	r2,-16(fp)
 5043a28:	10800620 	cmpeqi	r2,r2,24
 5043a2c:	1000031e 	bne	r2,zero,5043a3c <merge_color_channels+0xb0>
 5043a30:	e0bffc17 	ldw	r2,-16(fp)
 5043a34:	10800818 	cmpnei	r2,r2,32
 5043a38:	1000101e 	bne	r2,zero,5043a7c <merge_color_channels+0xf0>
  {
    *color++ = blue;
 5043a3c:	e0800117 	ldw	r2,4(fp)
 5043a40:	10c00044 	addi	r3,r2,1
 5043a44:	e0c00115 	stw	r3,4(fp)
 5043a48:	e0ffff03 	ldbu	r3,-4(fp)
 5043a4c:	10c00005 	stb	r3,0(r2)
    *color++ = green;
 5043a50:	e0800117 	ldw	r2,4(fp)
 5043a54:	10c00044 	addi	r3,r2,1
 5043a58:	e0c00115 	stw	r3,4(fp)
 5043a5c:	e0fffe03 	ldbu	r3,-8(fp)
 5043a60:	10c00005 	stb	r3,0(r2)
    *color = red;
 5043a64:	e0800117 	ldw	r2,4(fp)
 5043a68:	e0fffd03 	ldbu	r3,-12(fp)
 5043a6c:	10c00005 	stb	r3,0(r2)
    return_value = 1;
 5043a70:	00800044 	movi	r2,1
 5043a74:	e0bffa15 	stw	r2,-24(fp)
 5043a78:	00000b06 	br	5043aa8 <merge_color_channels+0x11c>
  }
  else  // not a valid color depth for this function
  {
    *color++ = 0;
 5043a7c:	e0800117 	ldw	r2,4(fp)
 5043a80:	10c00044 	addi	r3,r2,1
 5043a84:	e0c00115 	stw	r3,4(fp)
 5043a88:	10000005 	stb	zero,0(r2)
    *color++ = 0;
 5043a8c:	e0800117 	ldw	r2,4(fp)
 5043a90:	10c00044 	addi	r3,r2,1
 5043a94:	e0c00115 	stw	r3,4(fp)
 5043a98:	10000005 	stb	zero,0(r2)
    *color = 0;
 5043a9c:	e0800117 	ldw	r2,4(fp)
 5043aa0:	10000005 	stb	zero,0(r2)
    return_value = 0;    
 5043aa4:	e03ffa15 	stw	zero,-24(fp)
  }
  return return_value;  
 5043aa8:	e0bffa17 	ldw	r2,-24(fp)
}
 5043aac:	e037883a 	mov	sp,fp
 5043ab0:	df000017 	ldw	fp,0(sp)
 5043ab4:	dec00104 	addi	sp,sp,4
 5043ab8:	f800283a 	ret

05043abc <read_from_frame>:
*           needed to calculate the new one.
*
******************************************************************/

int read_from_frame (int horiz, int vert, unsigned char *red, unsigned char *green, unsigned char *blue, alt_video_display * display)
{
 5043abc:	defffa04 	addi	sp,sp,-24
 5043ac0:	dfc00515 	stw	ra,20(sp)
 5043ac4:	df000415 	stw	fp,16(sp)
 5043ac8:	df000404 	addi	fp,sp,16
 5043acc:	e13ffc15 	stw	r4,-16(fp)
 5043ad0:	e17ffd15 	stw	r5,-12(fp)
 5043ad4:	e1bffe15 	stw	r6,-8(fp)
 5043ad8:	e1ffff15 	stw	r7,-4(fp)
#ifdef LT24
	printf("read_from_frame is not implemented!\r\n");
 5043adc:	010141b4 	movhi	r4,1286
 5043ae0:	2103d604 	addi	r4,r4,3928
 5043ae4:	504ff300 	call	504ff30 <puts>
    return_value = 0; 
  }

  return return_value;
#endif
}
 5043ae8:	0001883a 	nop
 5043aec:	e037883a 	mov	sp,fp
 5043af0:	dfc00117 	ldw	ra,4(sp)
 5043af4:	df000017 	ldw	fp,0(sp)
 5043af8:	dec00204 	addi	sp,sp,8
 5043afc:	f800283a 	ret

05043b00 <alpha_blending>:
*           the font color with the background color.
*
******************************************************************/

int alpha_blending (int horiz_offset, int vert_offset, int background_color, unsigned char alpha, unsigned char *red, unsigned char *green, unsigned char *blue, alt_video_display * display)
{
 5043b00:	defff304 	addi	sp,sp,-52
 5043b04:	dfc00c15 	stw	ra,48(sp)
 5043b08:	df000b15 	stw	fp,44(sp)
 5043b0c:	df000b04 	addi	fp,sp,44
 5043b10:	e13ffc15 	stw	r4,-16(fp)
 5043b14:	e17ffd15 	stw	r5,-12(fp)
 5043b18:	e1bffe15 	stw	r6,-8(fp)
 5043b1c:	3805883a 	mov	r2,r7
 5043b20:	e0bfff05 	stb	r2,-4(fp)
  int return_value;
  unsigned char background_red, background_green, background_blue;
  unsigned int blended_red, blended_green, blended_blue;  // short since there may be overflow to be clipped
  
  // set red, green, and blue of the background color
  if(background_color == CLEAR_BACKGROUND)
 5043b24:	e0bffe17 	ldw	r2,-8(fp)
 5043b28:	10bfffd8 	cmpnei	r2,r2,-1
 5043b2c:	10000c1e 	bne	r2,zero,5043b60 <alpha_blending+0x60>
  {
    read_from_frame (horiz_offset, vert_offset, &background_red, &background_green, &background_blue, display);
 5043b30:	e13ffb44 	addi	r4,fp,-19
 5043b34:	e0fffb04 	addi	r3,fp,-20
 5043b38:	e0800517 	ldw	r2,20(fp)
 5043b3c:	d8800115 	stw	r2,4(sp)
 5043b40:	e0bffb84 	addi	r2,fp,-18
 5043b44:	d8800015 	stw	r2,0(sp)
 5043b48:	200f883a 	mov	r7,r4
 5043b4c:	180d883a 	mov	r6,r3
 5043b50:	e17ffd17 	ldw	r5,-12(fp)
 5043b54:	e13ffc17 	ldw	r4,-16(fp)
 5043b58:	5043abc0 	call	5043abc <read_from_frame>
 5043b5c:	00000c06 	br	5043b90 <alpha_blending+0x90>
  }
  else
  {
    seperate_color_channels(display->color_depth, (unsigned char *)&background_color, &background_red, &background_green, &background_blue);
 5043b60:	e0800517 	ldw	r2,20(fp)
 5043b64:	10c00017 	ldw	r3,0(r2)
 5043b68:	e1bffb44 	addi	r6,fp,-19
 5043b6c:	e17ffb04 	addi	r5,fp,-20
 5043b70:	e13ffe04 	addi	r4,fp,-8
 5043b74:	e0bffb84 	addi	r2,fp,-18
 5043b78:	d8800015 	stw	r2,0(sp)
 5043b7c:	300f883a 	mov	r7,r6
 5043b80:	280d883a 	mov	r6,r5
 5043b84:	200b883a 	mov	r5,r4
 5043b88:	1809883a 	mov	r4,r3
 5043b8c:	50438440 	call	5043844 <seperate_color_channels>
  }

  // these blended colors may need to be clipped to the maximum amounts the color depth supports
  blended_red = (((*red) * alpha) + (background_red * (255 - alpha)))/255;
 5043b90:	e0800217 	ldw	r2,8(fp)
 5043b94:	10800003 	ldbu	r2,0(r2)
 5043b98:	10c03fcc 	andi	r3,r2,255
 5043b9c:	e0bfff03 	ldbu	r2,-4(fp)
 5043ba0:	1887383a 	mul	r3,r3,r2
 5043ba4:	e0bffb03 	ldbu	r2,-20(fp)
 5043ba8:	11003fcc 	andi	r4,r2,255
 5043bac:	e0bfff03 	ldbu	r2,-4(fp)
 5043bb0:	01403fc4 	movi	r5,255
 5043bb4:	2885c83a 	sub	r2,r5,r2
 5043bb8:	2085383a 	mul	r2,r4,r2
 5043bbc:	1885883a 	add	r2,r3,r2
 5043bc0:	01403fc4 	movi	r5,255
 5043bc4:	1009883a 	mov	r4,r2
 5043bc8:	504b5bc0 	call	504b5bc <__divsi3>
 5043bcc:	e0bff815 	stw	r2,-32(fp)
  blended_green = (((*green) * alpha) + (background_green * (255 - alpha)))/255;
 5043bd0:	e0800317 	ldw	r2,12(fp)
 5043bd4:	10800003 	ldbu	r2,0(r2)
 5043bd8:	10c03fcc 	andi	r3,r2,255
 5043bdc:	e0bfff03 	ldbu	r2,-4(fp)
 5043be0:	1887383a 	mul	r3,r3,r2
 5043be4:	e0bffb43 	ldbu	r2,-19(fp)
 5043be8:	11003fcc 	andi	r4,r2,255
 5043bec:	e0bfff03 	ldbu	r2,-4(fp)
 5043bf0:	01403fc4 	movi	r5,255
 5043bf4:	2885c83a 	sub	r2,r5,r2
 5043bf8:	2085383a 	mul	r2,r4,r2
 5043bfc:	1885883a 	add	r2,r3,r2
 5043c00:	01403fc4 	movi	r5,255
 5043c04:	1009883a 	mov	r4,r2
 5043c08:	504b5bc0 	call	504b5bc <__divsi3>
 5043c0c:	e0bff915 	stw	r2,-28(fp)
  blended_blue = (((*blue) * alpha) + (background_blue * (255 - alpha)))/255;
 5043c10:	e0800417 	ldw	r2,16(fp)
 5043c14:	10800003 	ldbu	r2,0(r2)
 5043c18:	10c03fcc 	andi	r3,r2,255
 5043c1c:	e0bfff03 	ldbu	r2,-4(fp)
 5043c20:	1887383a 	mul	r3,r3,r2
 5043c24:	e0bffb83 	ldbu	r2,-18(fp)
 5043c28:	11003fcc 	andi	r4,r2,255
 5043c2c:	e0bfff03 	ldbu	r2,-4(fp)
 5043c30:	01403fc4 	movi	r5,255
 5043c34:	2885c83a 	sub	r2,r5,r2
 5043c38:	2085383a 	mul	r2,r4,r2
 5043c3c:	1885883a 	add	r2,r3,r2
 5043c40:	01403fc4 	movi	r5,255
 5043c44:	1009883a 	mov	r4,r2
 5043c48:	504b5bc0 	call	504b5bc <__divsi3>
 5043c4c:	e0bffa15 	stw	r2,-24(fp)
  

  if(display->color_depth == 16)
 5043c50:	e0800517 	ldw	r2,20(fp)
 5043c54:	10800017 	ldw	r2,0(r2)
 5043c58:	10800418 	cmpnei	r2,r2,16
 5043c5c:	1000181e 	bne	r2,zero,5043cc0 <alpha_blending+0x1c0>
  {
    *red = (blended_red > 0x1F)? 0x1F: blended_red;
 5043c60:	e0bff817 	ldw	r2,-32(fp)
 5043c64:	10c00830 	cmpltui	r3,r2,32
 5043c68:	1800011e 	bne	r3,zero,5043c70 <alpha_blending+0x170>
 5043c6c:	008007c4 	movi	r2,31
 5043c70:	1007883a 	mov	r3,r2
 5043c74:	e0800217 	ldw	r2,8(fp)
 5043c78:	10c00005 	stb	r3,0(r2)
    *green = (blended_green > 0x3F)? 0x3F: blended_green;
 5043c7c:	e0bff917 	ldw	r2,-28(fp)
 5043c80:	10c01030 	cmpltui	r3,r2,64
 5043c84:	1800011e 	bne	r3,zero,5043c8c <alpha_blending+0x18c>
 5043c88:	00800fc4 	movi	r2,63
 5043c8c:	1007883a 	mov	r3,r2
 5043c90:	e0800317 	ldw	r2,12(fp)
 5043c94:	10c00005 	stb	r3,0(r2)
    *blue = (blended_blue > 0x1F)? 0x1F: blended_blue; 
 5043c98:	e0bffa17 	ldw	r2,-24(fp)
 5043c9c:	10c00830 	cmpltui	r3,r2,32
 5043ca0:	1800011e 	bne	r3,zero,5043ca8 <alpha_blending+0x1a8>
 5043ca4:	008007c4 	movi	r2,31
 5043ca8:	1007883a 	mov	r3,r2
 5043cac:	e0800417 	ldw	r2,16(fp)
 5043cb0:	10c00005 	stb	r3,0(r2)
    return_value = 1;        
 5043cb4:	00800044 	movi	r2,1
 5043cb8:	e0bff715 	stw	r2,-36(fp)
 5043cbc:	00002106 	br	5043d44 <alpha_blending+0x244>
  }
  else if((display->color_depth == 24) || (display->color_depth == 32))
 5043cc0:	e0800517 	ldw	r2,20(fp)
 5043cc4:	10800017 	ldw	r2,0(r2)
 5043cc8:	10800620 	cmpeqi	r2,r2,24
 5043ccc:	1000041e 	bne	r2,zero,5043ce0 <alpha_blending+0x1e0>
 5043cd0:	e0800517 	ldw	r2,20(fp)
 5043cd4:	10800017 	ldw	r2,0(r2)
 5043cd8:	10800818 	cmpnei	r2,r2,32
 5043cdc:	1000181e 	bne	r2,zero,5043d40 <alpha_blending+0x240>
  {
    *red = (blended_red > 0xFF)? 0xFF: blended_red;
 5043ce0:	e0bff817 	ldw	r2,-32(fp)
 5043ce4:	10c04030 	cmpltui	r3,r2,256
 5043ce8:	1800011e 	bne	r3,zero,5043cf0 <alpha_blending+0x1f0>
 5043cec:	00803fc4 	movi	r2,255
 5043cf0:	1007883a 	mov	r3,r2
 5043cf4:	e0800217 	ldw	r2,8(fp)
 5043cf8:	10c00005 	stb	r3,0(r2)
    *green = (blended_green > 0xFF)? 0xFF: blended_green;
 5043cfc:	e0bff917 	ldw	r2,-28(fp)
 5043d00:	10c04030 	cmpltui	r3,r2,256
 5043d04:	1800011e 	bne	r3,zero,5043d0c <alpha_blending+0x20c>
 5043d08:	00803fc4 	movi	r2,255
 5043d0c:	1007883a 	mov	r3,r2
 5043d10:	e0800317 	ldw	r2,12(fp)
 5043d14:	10c00005 	stb	r3,0(r2)
    *blue = (blended_blue > 0xFF)? 0xFF: blended_blue; 
 5043d18:	e0bffa17 	ldw	r2,-24(fp)
 5043d1c:	10c04030 	cmpltui	r3,r2,256
 5043d20:	1800011e 	bne	r3,zero,5043d28 <alpha_blending+0x228>
 5043d24:	00803fc4 	movi	r2,255
 5043d28:	1007883a 	mov	r3,r2
 5043d2c:	e0800417 	ldw	r2,16(fp)
 5043d30:	10c00005 	stb	r3,0(r2)
    return_value = 1;            
 5043d34:	00800044 	movi	r2,1
 5043d38:	e0bff715 	stw	r2,-36(fp)
 5043d3c:	00000106 	br	5043d44 <alpha_blending+0x244>
  }
  else
  {
    return_value = 0;     
 5043d40:	e03ff715 	stw	zero,-36(fp)
  }  
 
  return return_value;
 5043d44:	e0bff717 	ldw	r2,-36(fp)
} 
 5043d48:	e037883a 	mov	sp,fp
 5043d4c:	dfc00117 	ldw	ra,4(sp)
 5043d50:	df000017 	ldw	fp,0(sp)
 5043d54:	dec00204 	addi	sp,sp,8
 5043d58:	f800283a 	ret

05043d5c <vid_print_char_alpha>:
*           screen using the specified font and color.
*
******************************************************************/

int vid_print_char_alpha (int horiz_offset, int vert_offset, int color, char character, int background_color, struct abc_font_struct font[], alt_video_display * display)
{
 5043d5c:	defff004 	addi	sp,sp,-64
 5043d60:	dfc00f15 	stw	ra,60(sp)
 5043d64:	df000e15 	stw	fp,56(sp)
 5043d68:	df000e04 	addi	fp,sp,56
 5043d6c:	e13ffc15 	stw	r4,-16(fp)
 5043d70:	e17ffd15 	stw	r5,-12(fp)
 5043d74:	e1bffe15 	stw	r6,-8(fp)
 5043d78:	3805883a 	mov	r2,r7
 5043d7c:	e0bfff05 	stb	r2,-4(fp)
  unsigned char original_red, original_blue, original_green;
  unsigned char red, green, blue;
  int new_color;

  // Assign the pointer of the font bitmap
  alpha = font[character-33].char_alpha_map;
 5043d80:	e0ffff07 	ldb	r3,-4(fp)
 5043d84:	00820034 	movhi	r2,2048
 5043d88:	10bff7c4 	addi	r2,r2,-33
 5043d8c:	1885883a 	add	r2,r3,r2
 5043d90:	1004917a 	slli	r2,r2,5
 5043d94:	e0c00317 	ldw	r3,12(fp)
 5043d98:	1885883a 	add	r2,r3,r2
 5043d9c:	10800617 	ldw	r2,24(r2)
 5043da0:	e0bff815 	stw	r2,-32(fp)

  // set red, green, and blue of the font color  
  seperate_color_channels(display->color_depth, (char *)&color, &original_red, &original_green, &original_blue);
 5043da4:	e0800417 	ldw	r2,16(fp)
 5043da8:	10c00017 	ldw	r3,0(r2)
 5043dac:	e1bff984 	addi	r6,fp,-26
 5043db0:	e17ff904 	addi	r5,fp,-28
 5043db4:	e13ffe04 	addi	r4,fp,-8
 5043db8:	e0bff944 	addi	r2,fp,-27
 5043dbc:	d8800015 	stw	r2,0(sp)
 5043dc0:	300f883a 	mov	r7,r6
 5043dc4:	280d883a 	mov	r6,r5
 5043dc8:	200b883a 	mov	r5,r4
 5043dcc:	1809883a 	mov	r4,r3
 5043dd0:	50438440 	call	5043844 <seperate_color_channels>

  for(i = 0; i < font[character-33].bounds_height; i++) {
 5043dd4:	e03ff615 	stw	zero,-40(fp)
 5043dd8:	00004a06 	br	5043f04 <vid_print_char_alpha+0x1a8>
    for (j = 0; j < font[character-33].bounds_width; j++) {
 5043ddc:	e03ff715 	stw	zero,-36(fp)
 5043de0:	00003b06 	br	5043ed0 <vid_print_char_alpha+0x174>
      red = original_red;
 5043de4:	e0bff903 	ldbu	r2,-28(fp)
 5043de8:	e0bff9c5 	stb	r2,-25(fp)
      green = original_green;
 5043dec:	e0bff983 	ldbu	r2,-26(fp)
 5043df0:	e0bffa05 	stb	r2,-24(fp)
      blue = original_blue;
 5043df4:	e0bff943 	ldbu	r2,-27(fp)
 5043df8:	e0bffa45 	stb	r2,-23(fp)

      // send in the font alpha channel and the colour channels for the blending to occur
      alpha_blending ((horiz_offset + j), (vert_offset + i), background_color, *alpha, &red, &green, &blue, display);
 5043dfc:	e0fffc17 	ldw	r3,-16(fp)
 5043e00:	e0bff717 	ldw	r2,-36(fp)
 5043e04:	1889883a 	add	r4,r3,r2
 5043e08:	e0fffd17 	ldw	r3,-12(fp)
 5043e0c:	e0bff617 	ldw	r2,-40(fp)
 5043e10:	1887883a 	add	r3,r3,r2
 5043e14:	e0bff817 	ldw	r2,-32(fp)
 5043e18:	10800003 	ldbu	r2,0(r2)
 5043e1c:	11403fcc 	andi	r5,r2,255
 5043e20:	e0800417 	ldw	r2,16(fp)
 5043e24:	d8800315 	stw	r2,12(sp)
 5043e28:	e0bffa44 	addi	r2,fp,-23
 5043e2c:	d8800215 	stw	r2,8(sp)
 5043e30:	e0bffa04 	addi	r2,fp,-24
 5043e34:	d8800115 	stw	r2,4(sp)
 5043e38:	e0bff9c4 	addi	r2,fp,-25
 5043e3c:	d8800015 	stw	r2,0(sp)
 5043e40:	280f883a 	mov	r7,r5
 5043e44:	e1800217 	ldw	r6,8(fp)
 5043e48:	180b883a 	mov	r5,r3
 5043e4c:	5043b000 	call	5043b00 <alpha_blending>

      // take the blended pixel and merge the color channels back into a single pixel value 
      merge_color_channels(display->color_depth, red, green, blue, (char *)&new_color);
 5043e50:	e0800417 	ldw	r2,16(fp)
 5043e54:	10c00017 	ldw	r3,0(r2)
 5043e58:	e0bff9c3 	ldbu	r2,-25(fp)
 5043e5c:	11003fcc 	andi	r4,r2,255
 5043e60:	e0bffa03 	ldbu	r2,-24(fp)
 5043e64:	11403fcc 	andi	r5,r2,255
 5043e68:	e0bffa43 	ldbu	r2,-23(fp)
 5043e6c:	11803fcc 	andi	r6,r2,255
 5043e70:	e0bffb04 	addi	r2,fp,-20
 5043e74:	d8800015 	stw	r2,0(sp)
 5043e78:	300f883a 	mov	r7,r6
 5043e7c:	280d883a 	mov	r6,r5
 5043e80:	200b883a 	mov	r5,r4
 5043e84:	1809883a 	mov	r4,r3
 5043e88:	504398c0 	call	504398c <merge_color_channels>
      
      // write the new pixel value out to memory overwriting the current background     
      vid_set_pixel((horiz_offset + j), (vert_offset + i), new_color, display);     
 5043e8c:	e0fffc17 	ldw	r3,-16(fp)
 5043e90:	e0bff717 	ldw	r2,-36(fp)
 5043e94:	1889883a 	add	r4,r3,r2
 5043e98:	e0fffd17 	ldw	r3,-12(fp)
 5043e9c:	e0bff617 	ldw	r2,-40(fp)
 5043ea0:	1885883a 	add	r2,r3,r2
 5043ea4:	e0fffb17 	ldw	r3,-20(fp)
 5043ea8:	e1c00417 	ldw	r7,16(fp)
 5043eac:	180d883a 	mov	r6,r3
 5043eb0:	100b883a 	mov	r5,r2
 5043eb4:	50419700 	call	5041970 <vid_set_pixel>

      alpha++;
 5043eb8:	e0bff817 	ldw	r2,-32(fp)
 5043ebc:	10800044 	addi	r2,r2,1
 5043ec0:	e0bff815 	stw	r2,-32(fp)

  // set red, green, and blue of the font color  
  seperate_color_channels(display->color_depth, (char *)&color, &original_red, &original_green, &original_blue);

  for(i = 0; i < font[character-33].bounds_height; i++) {
    for (j = 0; j < font[character-33].bounds_width; j++) {
 5043ec4:	e0bff717 	ldw	r2,-36(fp)
 5043ec8:	10800044 	addi	r2,r2,1
 5043ecc:	e0bff715 	stw	r2,-36(fp)
 5043ed0:	e0ffff07 	ldb	r3,-4(fp)
 5043ed4:	00820034 	movhi	r2,2048
 5043ed8:	10bff7c4 	addi	r2,r2,-33
 5043edc:	1885883a 	add	r2,r3,r2
 5043ee0:	1004917a 	slli	r2,r2,5
 5043ee4:	e0c00317 	ldw	r3,12(fp)
 5043ee8:	1885883a 	add	r2,r3,r2
 5043eec:	10800417 	ldw	r2,16(r2)
 5043ef0:	e0fff717 	ldw	r3,-36(fp)
 5043ef4:	18bfbb36 	bltu	r3,r2,5043de4 <_gp+0xfffd866c>
  alpha = font[character-33].char_alpha_map;

  // set red, green, and blue of the font color  
  seperate_color_channels(display->color_depth, (char *)&color, &original_red, &original_green, &original_blue);

  for(i = 0; i < font[character-33].bounds_height; i++) {
 5043ef8:	e0bff617 	ldw	r2,-40(fp)
 5043efc:	10800044 	addi	r2,r2,1
 5043f00:	e0bff615 	stw	r2,-40(fp)
 5043f04:	e0ffff07 	ldb	r3,-4(fp)
 5043f08:	00820034 	movhi	r2,2048
 5043f0c:	10bff7c4 	addi	r2,r2,-33
 5043f10:	1885883a 	add	r2,r3,r2
 5043f14:	1004917a 	slli	r2,r2,5
 5043f18:	e0c00317 	ldw	r3,12(fp)
 5043f1c:	1885883a 	add	r2,r3,r2
 5043f20:	10800517 	ldw	r2,20(r2)
 5043f24:	e0fff617 	ldw	r3,-40(fp)
 5043f28:	18bfac36 	bltu	r3,r2,5043ddc <_gp+0xfffd8664>

      alpha++;
    }
  }

  return(0);
 5043f2c:	0005883a 	mov	r2,zero
}
 5043f30:	e037883a 	mov	sp,fp
 5043f34:	dfc00117 	ldw	ra,4(sp)
 5043f38:	df000017 	ldw	fp,0(sp)
 5043f3c:	dec00204 	addi	sp,sp,8
 5043f40:	f800283a 	ret

05043f44 <vid_string_pixel_length_alpha>:
*           font.  Useful for centering text, and determining the
*           appropriate size of a text box or button.
*
******************************************************************/
int vid_string_pixel_length_alpha( struct abc_font_struct font[], char string[] )
{
 5043f44:	defffb04 	addi	sp,sp,-20
 5043f48:	df000415 	stw	fp,16(sp)
 5043f4c:	df000404 	addi	fp,sp,16
 5043f50:	e13ffe15 	stw	r4,-8(fp)
 5043f54:	e17fff15 	stw	r5,-4(fp)
  int i = 0;
 5043f58:	e03ffc15 	stw	zero,-16(fp)
  int length = 0;
 5043f5c:	e03ffd15 	stw	zero,-12(fp)

  // Count the length of the string
  for( i = 0; string[i] != '\0'; i++ )
 5043f60:	e03ffc15 	stw	zero,-16(fp)
 5043f64:	00002406 	br	5043ff8 <vid_string_pixel_length_alpha+0xb4>
  {
    if( string[i] == ' ' )
 5043f68:	e0bffc17 	ldw	r2,-16(fp)
 5043f6c:	e0ffff17 	ldw	r3,-4(fp)
 5043f70:	1885883a 	add	r2,r3,r2
 5043f74:	10800003 	ldbu	r2,0(r2)
 5043f78:	10803fcc 	andi	r2,r2,255
 5043f7c:	1080201c 	xori	r2,r2,128
 5043f80:	10bfe004 	addi	r2,r2,-128
 5043f84:	10800818 	cmpnei	r2,r2,32
 5043f88:	1000071e 	bne	r2,zero,5043fa8 <vid_string_pixel_length_alpha+0x64>
    {
      // Here we just add the length of the '-' character
      length += font[45 - 33].bounds_width;
 5043f8c:	e0bffe17 	ldw	r2,-8(fp)
 5043f90:	10806004 	addi	r2,r2,384
 5043f94:	10c00417 	ldw	r3,16(r2)
 5043f98:	e0bffd17 	ldw	r2,-12(fp)
 5043f9c:	1885883a 	add	r2,r3,r2
 5043fa0:	e0bffd15 	stw	r2,-12(fp)
 5043fa4:	00001106 	br	5043fec <vid_string_pixel_length_alpha+0xa8>
    }
    else
    {
      length += font[string[i] - 33].bounds_width;
 5043fa8:	e0bffc17 	ldw	r2,-16(fp)
 5043fac:	e0ffff17 	ldw	r3,-4(fp)
 5043fb0:	1885883a 	add	r2,r3,r2
 5043fb4:	10800003 	ldbu	r2,0(r2)
 5043fb8:	10c03fcc 	andi	r3,r2,255
 5043fbc:	18c0201c 	xori	r3,r3,128
 5043fc0:	18ffe004 	addi	r3,r3,-128
 5043fc4:	00820034 	movhi	r2,2048
 5043fc8:	10bff7c4 	addi	r2,r2,-33
 5043fcc:	1885883a 	add	r2,r3,r2
 5043fd0:	1004917a 	slli	r2,r2,5
 5043fd4:	e0fffe17 	ldw	r3,-8(fp)
 5043fd8:	1885883a 	add	r2,r3,r2
 5043fdc:	10c00417 	ldw	r3,16(r2)
 5043fe0:	e0bffd17 	ldw	r2,-12(fp)
 5043fe4:	1885883a 	add	r2,r3,r2
 5043fe8:	e0bffd15 	stw	r2,-12(fp)
{
  int i = 0;
  int length = 0;

  // Count the length of the string
  for( i = 0; string[i] != '\0'; i++ )
 5043fec:	e0bffc17 	ldw	r2,-16(fp)
 5043ff0:	10800044 	addi	r2,r2,1
 5043ff4:	e0bffc15 	stw	r2,-16(fp)
 5043ff8:	e0bffc17 	ldw	r2,-16(fp)
 5043ffc:	e0ffff17 	ldw	r3,-4(fp)
